
cme332_ex5_ucosii.elf:     file format elf32-littlenios2
cme332_ex5_ucosii.elf
architecture: nios2:r1, flags 0x00000112:
EXEC_P, HAS_SYMS, D_PAGED
start address 0x00000248

Program Header:
    LOAD off    0x00001000 vaddr 0x00000000 paddr 0x00000000 align 2**12
         filesz 0x00000020 memsz 0x00000020 flags r-x
    LOAD off    0x00001020 vaddr 0x00000020 paddr 0x00000020 align 2**12
         filesz 0x00011370 memsz 0x00011370 flags r-x
    LOAD off    0x00012390 vaddr 0x00011390 paddr 0x000131c0 align 2**12
         filesz 0x00001e30 memsz 0x00001e30 flags rw-
    LOAD off    0x00014ff0 vaddr 0x00014ff0 paddr 0x00014ff0 align 2**12
         filesz 0x00000000 memsz 0x0000946c flags rw-

Sections:
Idx Name          Size      VMA       LMA       File off  Algn
  0 .entry        00000020  00000000  00000000  00001000  2**5
                  CONTENTS, ALLOC, LOAD, READONLY, CODE
  1 .exceptions   00000228  00000020  00000020  00001020  2**2
                  CONTENTS, ALLOC, LOAD, READONLY, CODE
  2 .text         00010de0  00000248  00000248  00001248  2**2
                  CONTENTS, ALLOC, LOAD, READONLY, CODE
  3 .rodata       00000368  00011028  00011028  00012028  2**2
                  CONTENTS, ALLOC, LOAD, READONLY, DATA
  4 .rwdata       00001e30  00011390  000131c0  00012390  2**2
                  CONTENTS, ALLOC, LOAD, DATA, SMALL_DATA
  5 .bss          0000946c  00014ff0  00014ff0  00014ff0  2**2
                  ALLOC, SMALL_DATA
  6 .SDRAM        00000000  0001e45c  0001e45c  000141c0  2**0
                  CONTENTS
  7 .VGA_Subsystem_Char_Buf_Subsystem_Onchip_SRAM 00000000  09000000  09000000  000141c0  2**0
                  CONTENTS
  8 .comment      00000023  00000000  00000000  000141c0  2**0
                  CONTENTS, READONLY
  9 .debug_aranges 00000c38  00000000  00000000  000141e8  2**3
                  CONTENTS, READONLY, DEBUGGING
 10 .debug_info   000233b8  00000000  00000000  00014e20  2**0
                  CONTENTS, READONLY, DEBUGGING
 11 .debug_abbrev 00008454  00000000  00000000  000381d8  2**0
                  CONTENTS, READONLY, DEBUGGING
 12 .debug_line   0000a148  00000000  00000000  0004062c  2**0
                  CONTENTS, READONLY, DEBUGGING
 13 .debug_frame  0000305c  00000000  00000000  0004a774  2**2
                  CONTENTS, READONLY, DEBUGGING
 14 .debug_str    00004575  00000000  00000000  0004d7d0  2**0
                  CONTENTS, READONLY, DEBUGGING
 15 .debug_loc    00004a4c  00000000  00000000  00051d45  2**0
                  CONTENTS, READONLY, DEBUGGING
 16 .debug_alt_sim_info 00000020  00000000  00000000  00056794  2**2
                  CONTENTS, READONLY, DEBUGGING
 17 .debug_ranges 00000698  00000000  00000000  000567b8  2**3
                  CONTENTS, READONLY, DEBUGGING
 18 .thread_model 00000006  00000000  00000000  0005bbf5  2**0
                  CONTENTS, READONLY
 19 .cpu          00000005  00000000  00000000  0005bbfb  2**0
                  CONTENTS, READONLY
 20 .qsys         00000001  00000000  00000000  0005bc00  2**0
                  CONTENTS, READONLY
 21 .simulation_enabled 00000001  00000000  00000000  0005bc01  2**0
                  CONTENTS, READONLY
 22 .sysid_hash   00000004  00000000  00000000  0005bc02  2**0
                  CONTENTS, READONLY
 23 .sysid_base   00000004  00000000  00000000  0005bc06  2**0
                  CONTENTS, READONLY
 24 .sysid_time   00000004  00000000  00000000  0005bc0a  2**0
                  CONTENTS, READONLY
 25 .stderr_dev   00000009  00000000  00000000  0005bc0e  2**0
                  CONTENTS, READONLY
 26 .stdin_dev    00000009  00000000  00000000  0005bc17  2**0
                  CONTENTS, READONLY
 27 .stdout_dev   00000009  00000000  00000000  0005bc20  2**0
                  CONTENTS, READONLY
 28 .sopc_system_name 0000000f  00000000  00000000  0005bc29  2**0
                  CONTENTS, READONLY
 29 .quartus_project_dir 0000005b  00000000  00000000  0005bc38  2**0
                  CONTENTS, READONLY
 30 .sopcinfo     001d2080  00000000  00000000  0005bc93  2**0
                  CONTENTS, READONLY
SYMBOL TABLE:
00000000 l    d  .entry	00000000 .entry
00000020 l    d  .exceptions	00000000 .exceptions
00000248 l    d  .text	00000000 .text
00011028 l    d  .rodata	00000000 .rodata
00011390 l    d  .rwdata	00000000 .rwdata
00014ff0 l    d  .bss	00000000 .bss
0001e45c l    d  .SDRAM	00000000 .SDRAM
09000000 l    d  .VGA_Subsystem_Char_Buf_Subsystem_Onchip_SRAM	00000000 .VGA_Subsystem_Char_Buf_Subsystem_Onchip_SRAM
00000000 l    d  .comment	00000000 .comment
00000000 l    d  .debug_aranges	00000000 .debug_aranges
00000000 l    d  .debug_info	00000000 .debug_info
00000000 l    d  .debug_abbrev	00000000 .debug_abbrev
00000000 l    d  .debug_line	00000000 .debug_line
00000000 l    d  .debug_frame	00000000 .debug_frame
00000000 l    d  .debug_str	00000000 .debug_str
00000000 l    d  .debug_loc	00000000 .debug_loc
00000000 l    d  .debug_alt_sim_info	00000000 .debug_alt_sim_info
00000000 l    d  .debug_ranges	00000000 .debug_ranges
00000000 l    df *ABS*	00000000 ../cme332_ex5_ucosii_bsp//obj/HAL/src/crt0.o
00000280 l       .text	00000000 alt_after_alt_main
00000000 l    df *ABS*	00000000 alt_irq_handler.c
00000000 l    df *ABS*	00000000 alt_instruction_exception_entry.c
00000000 l    df *ABS*	00000000 binary_game.c
00000000 l    df *ABS*	00000000 puts.c
00000000 l    df *ABS*	00000000 rand.c
00000000 l    df *ABS*	00000000 strlen.c
00000000 l    df *ABS*	00000000 findfp.c
000015a4 l     F .text	00000008 __fp_unlock
000015b8 l     F .text	0000019c __sinit.part.1
00001754 l     F .text	00000008 __fp_lock
00000000 l    df *ABS*	00000000 fvwrite.c
00000000 l    df *ABS*	00000000 fwalk.c
00000000 l    df *ABS*	00000000 impure.c
000113b8 l     O .rwdata	00000424 impure_data
00000000 l    df *ABS*	00000000 mallocr.c
00000000 l    df *ABS*	00000000 memchr.c
00000000 l    df *ABS*	00000000 memcpy.c
00000000 l    df *ABS*	00000000 memmove.c
00000000 l    df *ABS*	00000000 memset.c
00000000 l    df *ABS*	00000000 mallocr.c
00000000 l    df *ABS*	00000000 sbrkr.c
00000000 l    df *ABS*	00000000 stdio.c
00000000 l    df *ABS*	00000000 writer.c
00000000 l    df *ABS*	00000000 wsetup.c
00000000 l    df *ABS*	00000000 closer.c
00000000 l    df *ABS*	00000000 fclose.c
00000000 l    df *ABS*	00000000 fflush.c
00000000 l    df *ABS*	00000000 mallocr.c
00000000 l    df *ABS*	00000000 int_errno.c
00000000 l    df *ABS*	00000000 lseekr.c
00000000 l    df *ABS*	00000000 makebuf.c
00000000 l    df *ABS*	00000000 readr.c
00000000 l    df *ABS*	00000000 fstatr.c
00000000 l    df *ABS*	00000000 isattyr.c
00000000 l    df *ABS*	00000000 lib2-divmod.c
00000000 l    df *ABS*	00000000 alt_close.c
00004200 l     F .text	0000003c alt_get_errno
00000000 l    df *ABS*	00000000 alt_dev.c
0000430c l     F .text	0000002c alt_dev_null_write
00000000 l    df *ABS*	00000000 alt_errno.c
00000000 l    df *ABS*	00000000 alt_fstat.c
00004338 l     F .text	0000003c alt_get_errno
00000000 l    df *ABS*	00000000 alt_isatty.c
00004424 l     F .text	0000003c alt_get_errno
00000000 l    df *ABS*	00000000 alt_load.c
00004504 l     F .text	00000068 alt_load_section
00000000 l    df *ABS*	00000000 alt_lseek.c
000045f0 l     F .text	0000003c alt_get_errno
00000000 l    df *ABS*	00000000 alt_main.c
00000000 l    df *ABS*	00000000 alt_read.c
000047bc l     F .text	0000003c alt_get_errno
00000000 l    df *ABS*	00000000 alt_release_fd.c
00000000 l    df *ABS*	00000000 alt_sbrk.c
00013134 l     O .rwdata	00000004 heap_end
00000000 l    df *ABS*	00000000 alt_write.c
00004a08 l     F .text	0000003c alt_get_errno
00000000 l    df *ABS*	00000000 alt_env_lock.c
00013138 l     O .rwdata	00000004 lockid
0001503c l     O .bss	00000004 locks
00000000 l    df *ABS*	00000000 alt_malloc_lock.c
0001313c l     O .rwdata	00000004 lockid
00015044 l     O .bss	00000004 locks
00000000 l    df *ABS*	00000000 os_core.c
00006438 l     F .text	00000048 OS_InitMisc
00006480 l     F .text	0000006c OS_InitRdyList
000065ec l     F .text	000000e4 OS_InitTCBList
00006358 l     F .text	000000e0 OS_InitEventList
000064ec l     F .text	00000080 OS_InitTaskIdle
0000656c l     F .text	00000080 OS_InitTaskStat
0000685c l     F .text	00000074 OS_SchedNew
00000000 l    df *ABS*	00000000 os_dbg.c
00000000 l    df *ABS*	00000000 os_flag.c
0000857c l     F .text	000000f4 OS_FlagTaskRdy
0000833c l     F .text	00000160 OS_FlagBlock
00000000 l    df *ABS*	00000000 os_mbox.c
00000000 l    df *ABS*	00000000 os_mem.c
00000000 l    df *ABS*	00000000 os_q.c
00000000 l    df *ABS*	00000000 os_sem.c
00000000 l    df *ABS*	00000000 os_task.c
00000000 l    df *ABS*	00000000 os_time.c
00000000 l    df *ABS*	00000000 alt_sys_init.c
0000d0f4 l     F .text	00000034 alt_dev_reg
00011d8c l     O .rwdata	0000106c JTAG_UART
00012df8 l     O .rwdata	00000030 AV_Config
00012e28 l     O .rwdata	00000030 Audio_Subsystem_Audio
00012e58 l     O .rwdata	0000002c Char_LCD_16x2
00012e84 l     O .rwdata	0000002c IrDA
00012eb0 l     O .rwdata	00000038 PS2_Port
00012ee8 l     O .rwdata	00000038 PS2_Port_Dual
00012f20 l     O .rwdata	0000002c Serial_Port
00012f4c l     O .rwdata	00000034 USB
00012f80 l     O .rwdata	0000005c VGA_Subsystem_Char_Buf_Subsystem_Char_Buf_DMA
00012fdc l     O .rwdata	0000005c VGA_Subsystem_VGA_Pixel_DMA
00013038 l     O .rwdata	0000005c Video_In_Subsystem_Video_In_DMA
00013094 l     O .rwdata	00000044 VGA_Subsystem_VGA_Pixel_RGB_Resampler
000130d8 l     O .rwdata	0000002c SD_Card
00000000 l    df *ABS*	00000000 altera_avalon_jtag_uart_fd.c
00000000 l    df *ABS*	00000000 altera_avalon_jtag_uart_init.c
0000dd6c l     F .text	000002a8 altera_avalon_jtag_uart_irq
0000e014 l     F .text	00000104 altera_avalon_jtag_uart_timeout
00000000 l    df *ABS*	00000000 altera_avalon_jtag_uart_ioctl.c
00000000 l    df *ABS*	00000000 altera_avalon_jtag_uart_read.c
00000000 l    df *ABS*	00000000 altera_avalon_jtag_uart_write.c
00000000 l    df *ABS*	00000000 altera_avalon_timer_sc.c
0000e7f0 l     F .text	0000007c alt_avalon_timer_sc_irq
00000000 l    df *ABS*	00000000 altera_up_avalon_character_lcd.c
00000000 l    df *ABS*	00000000 altera_up_avalon_irda.c
00000000 l    df *ABS*	00000000 altera_up_avalon_ps2.c
00000000 l    df *ABS*	00000000 altera_up_avalon_rs232.c
00000000 l    df *ABS*	00000000 alt_alarm_start.c
00000000 l    df *ABS*	00000000 alt_dcache_flush_all.c
00000000 l    df *ABS*	00000000 alt_dev_llist_insert.c
0000fcec l     F .text	0000003c alt_get_errno
00000000 l    df *ABS*	00000000 alt_do_ctors.c
00000000 l    df *ABS*	00000000 alt_do_dtors.c
00000000 l    df *ABS*	00000000 alt_find_dev.c
00000000 l    df *ABS*	00000000 alt_icache_flush_all.c
00000000 l    df *ABS*	00000000 alt_io_redirect.c
0000ff50 l     F .text	000000c4 alt_open_fd
00000000 l    df *ABS*	00000000 alt_irq_register.c
00000000 l    df *ABS*	00000000 alt_irq_vars.c
00000000 l    df *ABS*	00000000 alt_open.c
00010210 l     F .text	0000003c alt_get_errno
0001024c l     F .text	000000c4 alt_file_locked
00000000 l    df *ABS*	00000000 alt_tick.c
00000000 l    df *ABS*	00000000 altera_nios2_gen2_irq.c
00000000 l    df *ABS*	00000000 os_cpu_a.o
00000040 l       *ABS*	00000000 OSCtxSw_SWITCH_PC
00000000 l    df *ABS*	00000000 os_cpu_c.c
00000014 l       *ABS*	00000000 OSTCBNext_OFFSET
00000032 l       *ABS*	00000000 OSTCBPrio_OFFSET
00000000 l       *ABS*	00000000 OSTCBStkPtr_OFFSET
00000000 l    df *ABS*	00000000 alt_find_file.c
00000000 l    df *ABS*	00000000 alt_get_fd.c
00000000 l    df *ABS*	00000000 alt_icache_flush.c
00000000 l    df *ABS*	00000000 atexit.c
00000000 l    df *ABS*	00000000 exit.c
00000000 l    df *ABS*	00000000 memcmp.c
00000000 l    df *ABS*	00000000 __atexit.c
00000000 l    df *ABS*	00000000 __call_atexit.c
00000000 l    df *ABS*	00000000 alt_exit.c
000150a8 g     O .bss	00000004 alt_instruction_exception_handler
0001318a g     O .rwdata	00000002 OSTaskNameSize
00003ff8 g     F .text	00000054 _isatty_r
00004700 g     F .text	000000bc alt_main
000013c0 g     F .text	000000c0 _puts_r
0001e35c g     O .bss	00000100 alt_irq
0000f3ac g     F .text	00000060 alt_up_ps2_disable_read_interrupt
00003d20 g     F .text	00000060 _lseek_r
00009864 g     F .text	000000cc OS_MemInit
000131c0 g       *ABS*	00000000 __flash_rwdata_start
0000d094 g     F .text	00000060 OSTimeSet
0000e954 g     F .text	00000040 alt_up_character_lcd_send_cmd
000011ec g     F .text	000001d4 button_press_task
000050ac g     F .text	00000610 OSEventPendMulti
0001e45c g       *ABS*	00000000 __alt_heap_start
00010858 g     F .text	00000024 OSTaskCreateHook
00013162 g     O .rwdata	00000002 OSMboxEn
00005714 g     F .text	0000004c OSIntEnter
00000284 g     F .text	0000003c display_hex
000032d4 g     F .text	0000005c __sseek
000018f4 g     F .text	00000010 __sinit
0000f1c4 g     F .text	00000034 read_CE_bit
00013172 g     O .rwdata	00000002 OSQEn
0000175c g     F .text	00000068 __sfmoreglue
00004d80 g     F .text	000000cc __malloc_unlock
000108c0 g     F .text	00000020 OSTaskStatHook
0000f54c g     F .text	0000009c alt_up_ps2_read_data_byte_timeout
0000fa40 g     F .text	00000090 alt_up_rs232_read_fd
0001504c g     O .bss	00000001 OSLockNesting
000131b0 g     O .rwdata	00000002 OSDataSize
0001504d g     O .bss	00000001 OSRunning
000029c0 g     F .text	0000015c memmove
00010900 g     F .text	00000020 OSInitHookBegin
000131a8 g     O .rwdata	00000002 OSTmrSize
000018dc g     F .text	00000018 _cleanup
00015050 g     O .bss	00000004 OSIdleCtr
00010608 g     F .text	00000024 altera_nios2_gen2_irq_init
000106d8 g       .text	00000000 OSStartTsk
0000e8e0 g     F .text	00000074 get_DDRAM_addr
00006b9c g     F .text	000002d4 OS_TCBInit
000003c8 g     F .text	00000038 check_answer_add_point
00000000 g     F .entry	0000001c __reset
000131ae g     O .rwdata	00000002 OSTmrWheelTblSize
00000020 g       *ABS*	00000000 __flash_exceptions_start
0001314e g     O .rwdata	00000002 OSEventSize
00015054 g     O .bss	00000001 OSPrioHighRdy
00003f9c g     F .text	0000005c _fstat_r
0001087c g     F .text	00000024 OSTaskDelHook
00015028 g     O .bss	00000004 errno
00003250 g     F .text	00000008 __seofread
000106b8 g       .text	00000000 OSStartHighRdy
0000bb30 g     F .text	000001e4 OSTaskCreateExt
000150d4 g     O .bss	00001000 machineStateTask_stk
00007e84 g     F .text	00000060 OSFlagPendGetFlagsRdy
0001318e g     O .rwdata	00000002 OSTaskStatStkSize
00007000 g     F .text	00000308 OSFlagAccept
00009e9c g     F .text	000000b8 OSQFlush
00009930 g     F .text	00000140 OSQAccept
00015034 g     O .bss	00000004 alt_argv
0001b104 g       *ABS*	00000000 _gp
00000390 g     F .text	00000038 reset
0000b984 g     F .text	000001ac OSTaskCreate
0000b494 g     F .text	000004f0 OSTaskChangePrio
000002ec g     F .text	0000004c check_power_flag
00015048 g     O .bss	00000004 alt_heapsem
000160d4 g     O .bss	00001000 countTask_stk
00006e70 g     F .text	00000190 OSDebugInit
0000bd14 g     F .text	00000344 OSTaskDel
00011c0c g     O .rwdata	00000180 alt_fd_list
000170d4 g     O .bss	00001000 display_LEDR_task_stk
0001b138 g     O .bss	00000370 OSFlagTbl
00014ffc g     O .bss	00000004 number_of_question
00006138 g     F .text	000000b8 OS_EventTaskRemove
0000fe8c g     F .text	00000090 alt_find_dev
00002878 g     F .text	00000148 memcpy
00013178 g     O .rwdata	00000002 OSRdyTblSize
0000eafc g     F .text	00000050 alt_up_character_lcd_write_fd
000015ac g     F .text	0000000c _cleanup_r
00000510 g     F .text	000000e4 mainTask
00010014 g     F .text	0000007c alt_io_redirect
00011028 g       *ABS*	00000000 __DTOR_END__
0000f094 g     F .text	00000090 alt_up_irda_write_fd
0000f9cc g     F .text	00000074 alt_up_rs232_read_data
00001480 g     F .text	00000014 puts
00010bf8 g     F .text	0000009c alt_exception_cause_generated_bad_addr
00004e4c g     F .text	00000120 OSEventNameGet
0001315c g     O .rwdata	00000002 OSFlagMax
00005760 g     F .text	000000f8 OSIntExit
00013196 g     O .rwdata	00000002 OSTCBSize
00015055 g     O .bss	00000001 OSPrioCur
0000ee90 g     F .text	00000040 alt_up_irda_get_used_space_in_read_FIFO
0000e270 g     F .text	000002bc altera_avalon_jtag_uart_read
00004144 g     F .text	00000064 .hidden __udivsi3
00004460 g     F .text	000000a4 isatty
0001317c g     O .rwdata	00000002 OSStkWidth
00013170 g     O .rwdata	00000002 OSPtrSize
00013150 g     O .rwdata	00000002 OSEventTblSize
0000ee30 g     F .text	00000060 alt_up_irda_disable_read_interrupt
0001062c g       .text	00000000 OSCtxSw
00010b68 g     F .text	00000090 alt_icache_flush
00015024 g     O .bss	00000004 __malloc_top_pad
00015058 g     O .bss	00000004 OSTCBList
0001502c g     O .bss	00000004 alt_fd_list_lock
00000468 g     F .text	00000048 count_elapse
00001944 g     F .text	000004bc __sfvwrite_r
0001b4a8 g     O .bss	00000c30 OSMemTbl
0001505c g     O .bss	00000001 OSTickStepState
000031a8 g     F .text	00000054 _sbrk_r
00013174 g     O .rwdata	00000002 OSQMax
0001c0d8 g     O .bss	00000800 OSTaskStatStk
000094a0 g     F .text	000000f0 OSMemNameGet
00013154 g     O .rwdata	00000002 OSFlagEn
00003f3c g     F .text	00000060 _read_r
0001319a g     O .rwdata	00000002 OSTimeTickHookEn
0000a34c g     F .text	00000168 OSQPost
00008670 g     F .text	000000a4 OS_FlagUnlink
0001312c g     O .rwdata	00000004 alt_max_fd
0000f948 g     F .text	00000044 alt_up_rs232_check_parity
00006724 g     F .text	00000068 OS_MemCopy
0000678c g     F .text	000000d0 OS_Sched
00003540 g     F .text	000000f0 _fclose_r
000093b0 g     F .text	000000f0 OSMemGet
000090cc g     F .text	00000110 OSMboxQuery
00015000 g     O .bss	00000004 question
0000c340 g     F .text	000001b4 OSTaskNameSet
0000f1f8 g     F .text	00000030 read_num_bytes_available
000038bc g     F .text	00000030 fflush
00015020 g     O .bss	00000004 __malloc_max_sbrked_mem
00015060 g     O .bss	00000004 OSCtxSwCtr
000108e0 g     F .text	00000020 OSTimeTickHook
00010090 g     F .text	00000180 alt_irq_register
0001315e g     O .rwdata	00000002 OSFlagNameSize
0000f160 g     F .text	00000034 read_RI_bit
00014ff0 g     O .bss	00000004 point
000061f0 g     F .text	00000100 OS_EventTaskRemoveMulti
00005fe8 g     F .text	00000150 OS_EventTaskWaitMulti
00013176 g     O .rwdata	00000002 OSQSize
0000462c g     F .text	000000d4 lseek
0000adfc g     F .text	0000020c OSSemPend
0001310c g     O .rwdata	00000004 _global_impure_ptr
00002c44 g     F .text	00000564 _realloc_r
00013160 g     O .rwdata	00000002 OSLowestPrio
0001e45c g       *ABS*	00000000 __bss_end
00010960 g     F .text	00000024 OSTCBInitHook
000131a6 g     O .rwdata	00000002 OSTmrCfgTicksPerSec
00010500 g     F .text	00000108 alt_tick
00008e60 g     F .text	00000110 OSMboxPost
00013148 g     O .rwdata	00000002 OSEventEn
000131a2 g     O .rwdata	00000002 OSTmrCfgNameSize
00015004 g     O .bss	00000001 mailBoxErr
0000f25c g     F .text	0000002c read_data_byte
00001914 g     F .text	00000018 __fp_lock_all
000180d4 g     O .bss	00001000 display_task_HEX_task_stk
0000849c g     F .text	000000e0 OS_FlagInit
00013108 g     O .rwdata	00000004 state
00010464 g     F .text	0000009c alt_alarm_stop
00014ff4 g     O .bss	00000004 elapse_time
0000f194 g     F .text	00000030 read_RE_bit
00013184 g     O .rwdata	00000002 OSTaskIdleStkSize
0001509c g     O .bss	00000004 alt_irq_active
0000aa34 g     F .text	000000b0 OSSemAccept
000096a4 g     F .text	000000d8 OSMemPut
000091dc g     F .text	000001d4 OSMemCreate
00015064 g     O .bss	00000004 OSIdleCtrMax
0000eed0 g     F .text	0000003c alt_up_irda_get_available_space_in_write_FIFO
000000fc g     F .exceptions	000000d8 alt_irq_handler
00011be4 g     O .rwdata	00000028 alt_dev_null
00013198 g     O .rwdata	00000002 OSTicksPerSec
0000ed9c g     F .text	00000038 alt_up_character_lcd_cursor_blink_on
0001062c g       .text	00000000 OSIntCtxSw
0000f40c g     F .text	00000074 alt_up_ps2_write_data_byte
0000fccc g     F .text	00000020 alt_dcache_flush_all
00015068 g     O .bss	00000004 OSTCBFreeList
000131c0 g       *ABS*	00000000 __ram_rwdata_end
0000b008 g     F .text	0000016c OSSemPendAbort
00013124 g     O .rwdata	00000008 alt_dev_list
00004a44 g     F .text	000000f8 write
0001319c g     O .rwdata	00000002 OSVersionNbr
00011390 g       *ABS*	00000000 __ram_rodata_end
00004374 g     F .text	000000b0 fstat
0000fad0 g     F .text	00000094 alt_up_rs232_write_fd
00000000 g       *ABS*	00000000 __alt_mem_SDRAM
00013144 g     O .rwdata	00000004 OSEndiannessTest
000041a8 g     F .text	00000058 .hidden __umodsi3
00013156 g     O .rwdata	00000002 OSFlagGrpSize
0001e45c g       *ABS*	00000000 end
0000f73c g     F .text	00000098 alt_up_ps2_write_fd
0000ef0c g     F .text	00000044 alt_up_irda_check_parity
0000dc30 g     F .text	0000013c altera_avalon_jtag_uart_init
000069f4 g     F .text	000000dc OS_TaskStat
000001d4 g     F .exceptions	00000074 alt_instruction_exception_entry
00000abc g     F .text	00000730 display_task_HEX_task
00011028 g       *ABS*	00000000 __CTOR_LIST__
04000000 g       *ABS*	00000000 __alt_stack_pointer
0000e86c g     F .text	00000074 alt_avalon_timer_sc_init
0000e52c g     F .text	000002c4 altera_avalon_jtag_uart_write
00001904 g     F .text	00000004 __sfp_lock_acquire
00002794 g     F .text	000000e4 memchr
000066d0 g     F .text	00000054 OS_MemClr
0000ea08 g     F .text	0000007c alt_up_character_lcd_write
000106fc g     F .text	0000015c OSTaskStkInit
00003a10 g     F .text	00000310 _free_r
00005d40 g     F .text	00000198 OS_EventTaskRdy
00010e74 g     F .text	00000180 __call_exitprocs
0001506c g     O .bss	00000001 OSCPUUsage
00013114 g     O .rwdata	00000004 __malloc_sbrk_base
00000248 g     F .text	0000003c _start
000150a0 g     O .bss	00000004 _alt_tick_rate
00009f54 g     F .text	0000028c OSQPend
0000cc00 g     F .text	00000104 OSTimeDly
000014ac g     F .text	00000060 rand
000150a4 g     O .bss	00000004 _alt_nticks
000047f8 g     F .text	000000fc read
0000d160 g     F .text	0000096c alt_sys_init
0000ec4c g     F .text	0000008c alt_up_character_lcd_shift_display
00010d5c g     F .text	00000118 __register_exitproc
0001506d g     O .bss	00000001 OSTaskCtr
0000f658 g     F .text	00000058 alt_up_ps2_clear_fifo
0000f90c g     F .text	0000003c alt_up_rs232_get_available_space_in_write_FIFO
0000cd04 g     F .text	00000160 OSTimeDlyHMSM
0000ecd8 g     F .text	0000008c alt_up_character_lcd_erase_pos
0000e118 g     F .text	00000068 altera_avalon_jtag_uart_close
00011390 g       *ABS*	00000000 __ram_rwdata_start
00011028 g       *ABS*	00000000 __ram_rodata_start
000150ac g     O .bss	00000028 __malloc_current_mallinfo
0001314a g     O .rwdata	00000002 OSEventMax
0000b174 g     F .text	00000110 OSSemPost
00000338 g     F .text	00000058 check_answer_resume_task1
000058e4 g     F .text	000000dc OSSchedUnlock
00015008 g     O .bss	00000004 BPMBox
0000dacc g     F .text	00000060 altera_avalon_jtag_uart_read_fd
00010a8c g     F .text	000000dc alt_get_fd
00015070 g     O .bss	00000004 OSMemFreeList
00005a30 g     F .text	000000b0 OSStatInit
00008278 g     F .text	000000c4 OSFlagQuery
00013180 g     O .rwdata	00000002 OSTaskCreateExtEn
000034ec g     F .text	00000054 _close_r
00000400 g     F .text	00000034 check_end_game
00010ce0 g     F .text	0000007c memcmp
00005d20 g     F .text	00000020 OS_Dummy
0000db8c g     F .text	00000050 altera_avalon_jtag_uart_close_fd
0001e45c g       *ABS*	00000000 __alt_stack_base
0000dbdc g     F .text	00000054 altera_avalon_jtag_uart_ioctl_fd
0000edd4 g     F .text	0000005c alt_up_irda_enable_read_interrupt
00003398 g     F .text	00000154 __swsetup_r
0001c8d8 g     O .bss	000001e0 OSQTbl
000017c4 g     F .text	00000118 __sfp
000117dc g     O .rwdata	00000408 __malloc_av_
00001910 g     F .text	00000004 __sinit_lock_release
00015074 g     O .bss	00000004 OSTCBHighRdy
000031fc g     F .text	00000054 __sread
00015078 g     O .bss	00000004 OSQFreeList
0000f86c g     F .text	00000060 alt_up_rs232_disable_read_interrupt
00010984 g     F .text	00000108 alt_find_file
0000fd28 g     F .text	000000a4 alt_dev_llist_insert
00004c60 g     F .text	00000120 __malloc_lock
00004958 g     F .text	000000b0 sbrk
00004f6c g     F .text	00000140 OSEventNameSet
00003860 g     F .text	0000005c _fflush_r
0001507c g     O .bss	00000001 OSRdyGrp
00014ff0 g       *ABS*	00000000 __bss_start
00002b1c g     F .text	00000128 memset
0001500c g     O .bss	00000001 err
000004b0 g     F .text	00000060 main
00015038 g     O .bss	00000004 alt_envp
0001501c g     O .bss	00000004 __malloc_max_total_mem
000005f4 g     F .text	000000fc countTask
0000db2c g     F .text	00000060 altera_avalon_jtag_uart_write_fd
00001494 g     F .text	00000018 srand
00011110 g     O .rodata	00000100 OSUnMapTbl
0001317a g     O .rwdata	00000002 OSSemEn
000006f0 g     F .text	000000e0 machine_state_task
0000ebc0 g     F .text	0000008c alt_up_character_lcd_shift_cursor
00007ee4 g     F .text	00000394 OSFlagPost
00003330 g     F .text	00000008 __sclose
04000000 g       *ABS*	00000000 __alt_heap_limit
00003630 g     F .text	00000014 fclose
00005ed8 g     F .text	00000110 OS_EventTaskWait
0000f5e8 g     F .text	00000070 alt_up_ps2_read_data_byte
00006ad0 g     F .text	000000cc OS_TaskStatStkChk
0000c058 g     F .text	00000150 OSTaskDelReq
00001f88 g     F .text	0000080c _malloc_r
00013130 g     O .rwdata	00000004 alt_errno
000059c0 g     F .text	00000070 OSStart
00004c00 g     F .text	00000060 __env_unlock
00011390 g     O .rwdata	00000028 hex_display
00001e00 g     F .text	000000c4 _fwalk
0000c4f4 g     F .text	000001d4 OSTaskResume
0000977c g     F .text	000000e8 OSMemQuery
0001318c g     O .rwdata	00000002 OSTaskStatEn
0000ef50 g     F .text	00000040 alt_up_irda_write_data
00013166 g     O .rwdata	00000002 OSMemMax
0000a4b4 g     F .text	00000170 OSQPostFront
0000f7d4 g     F .text	0000003c alt_up_ps2_open_dev
0000404c g     F .text	00000084 .hidden __divsi3
0001507d g     O .bss	00000003 OSRdyTbl
00013140 g     O .rwdata	00000002 OSDebugEn
0000e9cc g     F .text	0000003c alt_up_character_lcd_open_dev
000038ec g     F .text	00000124 _malloc_trim_r
0000f350 g     F .text	0000005c alt_up_ps2_enable_read_interrupt
00011028 g       *ABS*	00000000 __CTOR_END__
00013158 g     O .rwdata	00000002 OSFlagNodeSize
00000434 g     F .text	00000034 submit_answer
000131a0 g     O .rwdata	00000002 OSTmrCfgMax
0000e994 g     F .text	00000038 alt_up_character_lcd_init
00009a70 g     F .text	000001ac OSQCreate
0000c1a8 g     F .text	00000198 OSTaskNameGet
00011028 g       *ABS*	00000000 __flash_rodata_start
0000a624 g     F .text	0000020c OSQPostOpt
00005ae0 g     F .text	00000220 OSTimeTick
00013188 g     O .rwdata	00000002 OSTaskMax
00011028 g       *ABS*	00000000 __DTOR_LIST__
0000aae4 g     F .text	000000d8 OSSemCreate
00015010 g     O .bss	00000004 answer
000131ac g     O .rwdata	00000002 OSTmrWheelSize
0000fb64 g     F .text	0000003c alt_up_rs232_open_dev
00013104 g     O .rwdata	00000004 count
00013182 g     O .rwdata	00000002 OSTaskDelEn
0000b284 g     F .text	00000110 OSSemQuery
00009c1c g     F .text	00000280 OSQDel
0000a1e0 g     F .text	0000016c OSQPendAbort
0000d128 g     F .text	00000038 alt_irq_init
000048f4 g     F .text	00000064 alt_release_fd
00015014 g     O .bss	00000004 statemsg
0000f228 g     F .text	00000034 read_data_valid
0000ed64 g     F .text	00000038 alt_up_character_lcd_cursor_off
0000f4e8 g     F .text	00000064 alt_up_ps2_write_data_byte_with_ack
00010c94 g     F .text	00000014 atexit
00003338 g     F .text	00000060 _write_r
00005858 g     F .text	0000008c OSSchedLock
00007308 g     F .text	00000108 OSFlagCreate
00013110 g     O .rwdata	00000004 _impure_ptr
00015030 g     O .bss	00000004 alt_argc
00003644 g     F .text	0000021c __sflush_r
0000fe2c g     F .text	00000060 _do_dtors
00013152 g     O .rwdata	00000002 OSEventMultiEn
09000000 g       *ABS*	00000000 __alt_mem_VGA_Subsystem_Char_Buf_Subsystem_Onchip_SRAM
000002c0 g     F .text	0000002c power_off
00007410 g     F .text	00000248 OSFlagDel
00015080 g     O .bss	00000004 OSEventFreeList
00000020 g       .exceptions	00000000 alt_irq_entry
00008cf4 g     F .text	0000016c OSMboxPendAbort
000078cc g     F .text	000005b8 OSFlagPend
0001319e g     O .rwdata	00000002 OSTmrEn
0000192c g     F .text	00000018 __fp_unlock_all
0001311c g     O .rwdata	00000008 alt_fs_list
000068d0 g     F .text	00000074 OS_StrCopy
0000f810 g     F .text	0000005c alt_up_rs232_enable_read_interrupt
0000f98c g     F .text	00000040 alt_up_rs232_write_data
00013168 g     O .rwdata	00000002 OSMemNameSize
00010920 g     F .text	00000020 OSInitHookEnd
00000020 g       *ABS*	00000000 __ram_exceptions_start
00013194 g     O .rwdata	00000002 OSTCBPrioTblMax
00013190 g     O .rwdata	00000002 OSTaskStatStkChkEn
000087ac g     F .text	000000d4 OSMboxCreate
00013164 g     O .rwdata	00000002 OSMemEn
0001316e g     O .rwdata	00000002 OSMutexEn
000190d4 g     O .bss	00000064 commRxBuf
000131c0 g       *ABS*	00000000 _edata
0001e45c g       *ABS*	00000000 _end
00015084 g     O .bss	00000001 OSIntNesting
00000248 g       *ABS*	00000000 __ram_exceptions_end
0000e180 g     F .text	000000f0 altera_avalon_jtag_uart_ioctl
0000ce64 g     F .text	000001d4 OSTimeDlyResume
00007780 g     F .text	0000014c OSFlagNameSet
00008ac0 g     F .text	00000234 OSMboxPend
0000c6c8 g     F .text	000001c0 OSTaskStkChk
0001316a g     O .rwdata	00000002 OSMemSize
00003258 g     F .text	0000007c __swrite
00013118 g     O .rwdata	00000004 __malloc_trim_threshold
00015088 g     O .bss	00000004 OSTCBCur
00010ca8 g     F .text	00000038 exit
0000ef90 g     F .text	00000074 alt_up_irda_read_data
0001316c g     O .rwdata	00000002 OSMemTblSize
00001ec4 g     F .text	000000c4 _fwalk_reent
0000f288 g     F .text	000000c8 alt_up_ps2_init
000040d0 g     F .text	00000074 .hidden __modsi3
00015018 g     O .bss	00000004 dispSem
00008714 g     F .text	00000098 OSMboxAccept
04000000 g       *ABS*	00000000 __alt_data_end
00000020 g     F .exceptions	00000000 alt_exception
00001908 g     F .text	00000004 __sfp_lock_release
00019138 g     O .bss	00001000 mainTask_stk
000056bc g     F .text	00000058 OSInit
000007d0 g     F .text	000002ec display_LEDR_task
0000ca6c g     F .text	00000124 OSTaskQuery
0000ea84 g     F .text	00000078 alt_up_character_lcd_string
0000a98c g     F .text	000000a8 OS_QInit
00006944 g     F .text	00000054 OS_StrLen
0000f124 g     F .text	0000003c alt_up_irda_open_dev
00009590 g     F .text	00000114 OSMemNameSet
00013186 g     O .rwdata	00000002 OSTaskProfileEn
0001508c g     O .bss	00000004 OSTime
0001cab8 g     O .bss	00000800 OSTaskIdleStk
00010ff4 g     F .text	00000034 _exit
00008f70 g     F .text	0000015c OSMboxPostOpt
0000fba0 g     F .text	0000012c alt_alarm_start
00007658 g     F .text	00000128 OSFlagNameGet
0000d038 g     F .text	0000005c OSTimeGet
00003d80 g     F .text	000001bc __smakebuf_r
0000f480 g     F .text	00000068 alt_up_ps2_wait_for_ack
00014ff8 g     O .bss	00000004 power_flag
0000150c g     F .text	00000098 strlen
000108a0 g     F .text	00000020 OSTaskSwHook
00010310 g     F .text	00000154 open
0001d2b8 g     O .bss	00000b40 OSEventTbl
0001ddf8 g     O .bss	00000510 OSTCBTbl
0000b394 g     F .text	00000100 OSSemSet
0000ff1c g     F .text	00000034 alt_icache_flush_all
0000eb4c g     F .text	00000074 alt_up_character_lcd_set_cursor_pos
000131b4 g     O .rwdata	00000004 alt_priority_mask
0000abbc g     F .text	00000240 OSSemDel
00015090 g     O .bss	00000004 OSFlagFreeList
0001314c g     O .rwdata	00000002 OSEventNameSize
00008880 g     F .text	00000240 OSMboxDel
00015094 g     O .bss	00000001 OSStatRdy
0001e308 g     O .bss	00000054 OSTCBPrioTbl
00004b3c g     F .text	000000c4 __env_lock
0000f6b0 g     F .text	0000008c alt_up_ps2_read_fd
00013192 g     O .rwdata	00000002 OSTaskSwHookEn
0000f004 g     F .text	00000090 alt_up_irda_read_fd
000131b8 g     O .rwdata	00000008 alt_alarm_list
0001315a g     O .rwdata	00000002 OSFlagWidth
0000fdcc g     F .text	00000060 _do_ctors
0000f8cc g     F .text	00000040 alt_up_rs232_get_used_space_in_read_FIFO
0000423c g     F .text	000000d0 close
00015040 g     O .bss	00000004 alt_envsem
00015098 g     O .bss	00000004 OSIdleCtrRun
0001a138 g     O .bss	00001000 button_press_task_stk
00005d00 g     F .text	00000020 OSVersion
000131a4 g     O .rwdata	00000002 OSTmrCfgWheelSize
0000456c g     F .text	00000084 alt_load
0000cb90 g     F .text	00000070 OS_TaskStkClr
0001317e g     O .rwdata	00000002 OSTaskCreateEn
000062f0 g     F .text	00000068 OS_EventWaitListInit
00010940 g     F .text	00000020 OSTaskIdleHook
0000190c g     F .text	00000004 __sinit_lock_acquire
0000c888 g     F .text	000001e4 OSTaskSuspend
00006998 g     F .text	0000005c OS_TaskIdle
000131aa g     O .rwdata	00000002 OSTmrTblSize
0000a830 g     F .text	0000015c OSQQuery



Disassembly of section .entry:

00000000 <__reset>:
#if NIOS2_ICACHE_SIZE > 0 && defined(ALT_ALLOW_CODE_AT_RESET) && (!defined(ALT_SIM_OPTIMIZE) || defined(NIOS2_ECC_PRESENT))
    /* Assume the instruction cache size is always a power of two. */
#if NIOS2_ICACHE_SIZE > 0x8000
    movhi r2, %hi(NIOS2_ICACHE_SIZE)
#else
    movui r2, NIOS2_ICACHE_SIZE
   0:	00840014 	movui	r2,4096
#endif

0:
    initi r2
   4:	1001483a 	initi	r2
    addi r2, r2, -NIOS2_ICACHE_LINE_SIZE
   8:	10bff804 	addi	r2,r2,-32
    bgt r2, zero, 0b
   c:	00bffd16 	blt	zero,r2,4 <__alt_mem_VGA_Subsystem_Char_Buf_Subsystem_Onchip_SRAM+0xf7000004>
 * Jump to the _start entry point in the .text section if reset code
 * is allowed or if optimizing for RTL simulation.
 */
#if defined(ALT_ALLOW_CODE_AT_RESET) || defined(ALT_SIM_OPTIMIZE)
    /* Jump to the _start entry point in the .text section. */
    movhi r1, %hi(_start)
  10:	00400034 	movhi	at,0
    ori r1, r1, %lo(_start)
  14:	08409214 	ori	at,at,584
    jmp r1
  18:	0800683a 	jmp	at
  1c:	00000000 	call	0 <__reset>

Disassembly of section .exceptions:

00000020 <alt_exception>:

#else /* ALT_EXCEPTION_STACK disabled */
        /* 
         * Reserve space on normal stack for registers about to be pushed.
         */
        addi  sp, sp, -76
  20:	deffed04 	addi	sp,sp,-76
         * documentation for details).
         *
         * Leave a gap in the stack frame at 4(sp) for the muldiv handler to
         * store zero into.
         */
        stw   ra,  0(sp)
  24:	dfc00015 	stw	ra,0(sp)
        stw   r1,   8(sp)
  28:	d8400215 	stw	at,8(sp)
        stw   r2,  12(sp)
  2c:	d8800315 	stw	r2,12(sp)
        stw   r3,  16(sp)
  30:	d8c00415 	stw	r3,16(sp)
        stw   r4,  20(sp)
  34:	d9000515 	stw	r4,20(sp)
        stw   r5,  24(sp)
  38:	d9400615 	stw	r5,24(sp)
        stw   r6,  28(sp)
  3c:	d9800715 	stw	r6,28(sp)
        stw   r7,  32(sp)
  40:	d9c00815 	stw	r7,32(sp)
        rdctl r5, estatus   /* Read early to avoid usage stall */
  44:	000b307a 	rdctl	r5,estatus
        stw   r8,  36(sp)
  48:	da000915 	stw	r8,36(sp)
        stw   r9,  40(sp)
  4c:	da400a15 	stw	r9,40(sp)
        stw   r10, 44(sp)
  50:	da800b15 	stw	r10,44(sp)
        stw   r11, 48(sp)
  54:	dac00c15 	stw	r11,48(sp)
        stw   r12, 52(sp)
  58:	db000d15 	stw	r12,52(sp)
        stw   r13, 56(sp)
  5c:	db400e15 	stw	r13,56(sp)
        stw   r14, 60(sp)
  60:	db800f15 	stw	r14,60(sp)
        stw   r15, 64(sp)
  64:	dbc01015 	stw	r15,64(sp)
        /*
         * ea-4 contains the address of the instruction being executed
         * when the exception occured. For interrupt exceptions, we will
         * will be re-issue the isntruction. Store it in 72(sp)
         */
        stw   r5,  68(sp)  /* estatus */
  68:	d9401115 	stw	r5,68(sp)
        addi  r15, ea, -4  /* instruction that caused exception */
  6c:	ebffff04 	addi	r15,ea,-4
        stw   r15,  72(sp)
  70:	dbc01215 	stw	r15,72(sp)
#else
        /*
         * Test to see if the exception was a software exception or caused 
         * by an external interrupt, and vector accordingly.
         */
        rdctl r4, ipending
  74:	0009313a 	rdctl	r4,ipending
        andi  r2, r5, 1
  78:	2880004c 	andi	r2,r5,1
        beq   r2, zero, .Lnot_irq
  7c:	10000326 	beq	r2,zero,8c <OSCtxSw_SWITCH_PC+0x4c>
        beq   r4, zero, .Lnot_irq
  80:	20000226 	beq	r4,zero,8c <OSCtxSw_SWITCH_PC+0x4c>
        /*
         * Now that all necessary registers have been preserved, call 
         * alt_irq_handler() to process the interrupts.
         */

        call alt_irq_handler
  84:	00000fc0 	call	fc <alt_irq_handler>

        .section .exceptions.irqreturn, "xa"

        br    .Lexception_exit
  88:	00000706 	br	a8 <OSCtxSw_SWITCH_PC+0x68>
         * upon completion, so we write ea (address of instruction *after*
         * the one where the exception occured) into 72(sp). The actual
         * instruction that caused the exception is written in r2, which these
         * handlers will utilize.
         */
        stw ea, 72(sp) /* EA is PC+4 so will skip over instruction causing exception */
  8c:	df401215 	stw	ea,72(sp)
.Lunknown_16bit:
        addi.n r4, r4, 2 /* Need PC+2 to skip over instruction causing exception */
        stw r4, 72(sp)

#else /* CDX is not Enabled and all instructions are 32bits */
        ldw r2, -4(ea) /* Instruction value that caused exception */
  90:	e8bfff17 	ldw	r2,-4(ea)
         * debugger is present) or go into an infinite loop since the
         * handling behavior is undefined; in that case we will not return here.
         */

        /* Load exception-causing address as first argument (r4) */
        addi   r4, ea, -4
  94:	e93fff04 	addi	r4,ea,-4

        /* Call the instruction-exception entry */
        call   alt_instruction_exception_entry
  98:	00001d40 	call	1d4 <alt_instruction_exception_entry>
         * instruction
         *
         * Return code was 0: Skip. The instruction after the exception is
         * already stored in 72(sp).
         */
        bne   r2, r0, .Lexception_exit
  9c:	1000021e 	bne	r2,zero,a8 <OSCtxSw_SWITCH_PC+0x68>

        /*
         * Otherwise, modify 72(sp) to re-issue the instruction that caused the
         * exception.
         */
        addi  r15, ea, -4  /* instruction that caused exception */
  a0:	ebffff04 	addi	r15,ea,-4
        stw   r15,  72(sp)
  a4:	dbc01215 	stw	r15,72(sp)
        /* 
         * Restore the saved registers, so that all general purpose registers 
         * have been restored to their state at the time the interrupt occured.
         */

        ldw   r5,  68(sp)
  a8:	d9401117 	ldw	r5,68(sp)
        ldw   ea,  72(sp)  /* This becomes the PC once eret is executed */
  ac:	df401217 	ldw	ea,72(sp)
        ldw   ra,   0(sp)
  b0:	dfc00017 	ldw	ra,0(sp)

        wrctl estatus, r5
  b4:	2801707a 	wrctl	estatus,r5

        ldw   r1,   8(sp)
  b8:	d8400217 	ldw	at,8(sp)
        ldw   r2,  12(sp)
  bc:	d8800317 	ldw	r2,12(sp)
        ldw   r3,  16(sp)
  c0:	d8c00417 	ldw	r3,16(sp)
        ldw   r4,  20(sp)
  c4:	d9000517 	ldw	r4,20(sp)
        ldw   r5,  24(sp)
  c8:	d9400617 	ldw	r5,24(sp)
        ldw   r6,  28(sp)
  cc:	d9800717 	ldw	r6,28(sp)
        ldw   r7,  32(sp)
  d0:	d9c00817 	ldw	r7,32(sp)

#if defined(ALT_EXCEPTION_STACK) && defined(ALT_STACK_CHECK)
        ldw   et, %gprel(alt_exception_old_stack_limit)(gp)
#endif

        ldw   r8,  36(sp)
  d4:	da000917 	ldw	r8,36(sp)
        ldw   r9,  40(sp)
  d8:	da400a17 	ldw	r9,40(sp)
        ldw   r10, 44(sp)
  dc:	da800b17 	ldw	r10,44(sp)
        ldw   r11, 48(sp)
  e0:	dac00c17 	ldw	r11,48(sp)
        ldw   r12, 52(sp)
  e4:	db000d17 	ldw	r12,52(sp)
        ldw   r13, 56(sp)
  e8:	db400e17 	ldw	r13,56(sp)
        ldw   r14, 60(sp)
  ec:	db800f17 	ldw	r14,60(sp)
        ldw   r15, 64(sp)
  f0:	dbc01017 	ldw	r15,64(sp)
        stw   et, %gprel(alt_stack_limit_value)(gp)
        stw   zero, %gprel(alt_exception_old_stack_limit)(gp)
#endif /* ALT_STACK_CHECK */
        ldw   sp,  76(sp)
#else /* ALT_EXCEPTION_STACK disabled */
        addi  sp, sp, 76
  f4:	dec01304 	addi	sp,sp,76

        /*
         * Return to the interrupted instruction.
         */

        eret
  f8:	ef80083a 	eret

000000fc <alt_irq_handler>:
 * instruction is present if the macro ALT_CI_INTERRUPT_VECTOR defined.
 */

void alt_irq_handler (void) __attribute__ ((section (".exceptions")));
void alt_irq_handler (void)
{
  fc:	defff904 	addi	sp,sp,-28
 100:	dfc00615 	stw	ra,24(sp)
 104:	df000515 	stw	fp,20(sp)
 108:	df000504 	addi	fp,sp,20
  
  /*
   * Notify the operating system that we are at interrupt level.
   */ 
  
  ALT_OS_INT_ENTER();
 10c:	00057140 	call	5714 <OSIntEnter>
#ifndef NIOS2_EIC_PRESENT
static ALT_INLINE alt_u32 ALT_ALWAYS_INLINE alt_irq_pending (void)
{
  alt_u32 active;

  NIOS2_READ_IPENDING (active);
 110:	0005313a 	rdctl	r2,ipending
 114:	e0bffe15 	stw	r2,-8(fp)

  return active;
 118:	e0bffe17 	ldw	r2,-8(fp)
   * Consider the case where the high priority interupt is asserted during
   * the interrupt entry sequence for a lower priority interrupt to see why
   * this is the case.
   */

  active = alt_irq_pending ();
 11c:	e0bffb15 	stw	r2,-20(fp)

  do
  {
    i = 0;
 120:	e03ffd15 	stw	zero,-12(fp)
    mask = 1;
 124:	00800044 	movi	r2,1
 128:	e0bffc15 	stw	r2,-16(fp)
     * called to clear the interrupt condition.
     */

    do
    {
      if (active & mask)
 12c:	e0fffb17 	ldw	r3,-20(fp)
 130:	e0bffc17 	ldw	r2,-16(fp)
 134:	1884703a 	and	r2,r3,r2
 138:	10001526 	beq	r2,zero,190 <alt_irq_handler+0x94>
      { 
#ifdef ALT_ENHANCED_INTERRUPT_API_PRESENT
        alt_irq[i].handler(alt_irq[i].context); 
#else
        alt_irq[i].handler(alt_irq[i].context, i); 
 13c:	008000b4 	movhi	r2,2
 140:	10b8d704 	addi	r2,r2,-7332
 144:	e0fffd17 	ldw	r3,-12(fp)
 148:	180690fa 	slli	r3,r3,3
 14c:	10c5883a 	add	r2,r2,r3
 150:	10c00017 	ldw	r3,0(r2)
 154:	008000b4 	movhi	r2,2
 158:	10b8d704 	addi	r2,r2,-7332
 15c:	e13ffd17 	ldw	r4,-12(fp)
 160:	200890fa 	slli	r4,r4,3
 164:	1105883a 	add	r2,r2,r4
 168:	10800104 	addi	r2,r2,4
 16c:	10800017 	ldw	r2,0(r2)
 170:	e17ffd17 	ldw	r5,-12(fp)
 174:	1009883a 	mov	r4,r2
 178:	183ee83a 	callr	r3
#endif
        break;
 17c:	0001883a 	nop
#ifndef NIOS2_EIC_PRESENT
static ALT_INLINE alt_u32 ALT_ALWAYS_INLINE alt_irq_pending (void)
{
  alt_u32 active;

  NIOS2_READ_IPENDING (active);
 180:	0005313a 	rdctl	r2,ipending
 184:	e0bfff15 	stw	r2,-4(fp)

  return active;
 188:	e0bfff17 	ldw	r2,-4(fp)
 18c:	00000706 	br	1ac <alt_irq_handler+0xb0>
      }
      mask <<= 1;
 190:	e0bffc17 	ldw	r2,-16(fp)
 194:	1085883a 	add	r2,r2,r2
 198:	e0bffc15 	stw	r2,-16(fp)
      i++;
 19c:	e0bffd17 	ldw	r2,-12(fp)
 1a0:	10800044 	addi	r2,r2,1
 1a4:	e0bffd15 	stw	r2,-12(fp)

    } while (1);
 1a8:	003fe006 	br	12c <__alt_mem_VGA_Subsystem_Char_Buf_Subsystem_Onchip_SRAM+0xf700012c>

    active = alt_irq_pending ();
 1ac:	e0bffb15 	stw	r2,-20(fp)
    
  } while (active);
 1b0:	e0bffb17 	ldw	r2,-20(fp)
 1b4:	103fda1e 	bne	r2,zero,120 <__alt_mem_VGA_Subsystem_Char_Buf_Subsystem_Onchip_SRAM+0xf7000120>

  /*
   * Notify the operating system that interrupt processing is complete.
   */ 

  ALT_OS_INT_EXIT();
 1b8:	00057600 	call	5760 <OSIntExit>
}
 1bc:	0001883a 	nop
 1c0:	e037883a 	mov	sp,fp
 1c4:	dfc00117 	ldw	ra,4(sp)
 1c8:	df000017 	ldw	fp,0(sp)
 1cc:	dec00204 	addi	sp,sp,8
 1d0:	f800283a 	ret

000001d4 <alt_instruction_exception_entry>:
 * that handler if it has been registered. Absent a handler, it will
 * break break or hang as discussed below.
 */
int 
alt_instruction_exception_entry (alt_u32 exception_pc)
{
 1d4:	defffb04 	addi	sp,sp,-20
 1d8:	dfc00415 	stw	ra,16(sp)
 1dc:	df000315 	stw	fp,12(sp)
 1e0:	df000304 	addi	fp,sp,12
 1e4:	e13fff15 	stw	r4,-4(fp)
 * NIOS2_EXCEPTION_CAUSE_NOT_PRESENT. Your handling routine should
 * check the validity of the cause argument before proceeding.
 */
#ifdef NIOS2_HAS_EXTRA_EXCEPTION_INFO
  /* Get exception cause & "badaddr" */
  NIOS2_READ_EXCEPTION(cause);
 1e8:	000531fa 	rdctl	r2,exception
 1ec:	e0bffd15 	stw	r2,-12(fp)
  cause = ( (cause & NIOS2_EXCEPTION_REG_CAUSE_MASK) >>
 1f0:	e0bffd17 	ldw	r2,-12(fp)
 1f4:	10801f0c 	andi	r2,r2,124
 1f8:	1004d0ba 	srli	r2,r2,2
 1fc:	e0bffd15 	stw	r2,-12(fp)
              NIOS2_EXCEPTION_REG_CAUSE_OFST );

  NIOS2_READ_BADADDR(badaddr);
 200:	0005333a 	rdctl	r2,badaddr
 204:	e0bffe15 	stw	r2,-8(fp)
#else
  cause = NIOS2_EXCEPTION_CAUSE_NOT_PRESENT;
  badaddr = 0;
#endif /* NIOS2_HAS_EXTRA_EXCEPTION_INFO */

  if(alt_instruction_exception_handler) {
 208:	d0a7e917 	ldw	r2,-24668(gp)
 20c:	10000726 	beq	r2,zero,22c <alt_instruction_exception_entry+0x58>
     * Call handler. Its return value indicates whether the exception-causing
     * instruction should be re-issued. The code that called us,
     * alt_eceptions_entry.S, will look at this value and adjust the ea
     * register as necessary
     */
    return alt_instruction_exception_handler(cause, exception_pc, badaddr);
 210:	d0a7e917 	ldw	r2,-24668(gp)
 214:	e0fffd17 	ldw	r3,-12(fp)
 218:	e1bffe17 	ldw	r6,-8(fp)
 21c:	e17fff17 	ldw	r5,-4(fp)
 220:	1809883a 	mov	r4,r3
 224:	103ee83a 	callr	r2
 228:	00000206 	br	234 <alt_instruction_exception_entry+0x60>
   *    (a peripheral which negates its interrupt output before its
   *    interrupt handler has been executed will cause spurious interrupts)
   */
  else {
#ifdef NIOS2_HAS_DEBUG_STUB
    NIOS2_BREAK();
 22c:	003da03a 	break	0
      ;
#endif /* NIOS2_HAS_DEBUG_STUB */
  }

  /* We should not get here. Remove compiler warning. */
  return NIOS2_EXCEPTION_RETURN_REISSUE_INST;
 230:	0005883a 	mov	r2,zero
}
 234:	e037883a 	mov	sp,fp
 238:	dfc00117 	ldw	ra,4(sp)
 23c:	df000017 	ldw	fp,0(sp)
 240:	dec00204 	addi	sp,sp,8
 244:	f800283a 	ret

Disassembly of section .text:

00000248 <_start>:

    /*
     * Now that the caches are initialized, set up the stack pointer and global pointer.
     * The values provided by the linker are assumed to be correctly aligned.
     */
    movhi sp, %hi(__alt_stack_pointer)
     248:	06c10034 	movhi	sp,1024
    ori sp, sp, %lo(__alt_stack_pointer)
     24c:	dec00014 	ori	sp,sp,0
    movhi gp, %hi(_gp)
     250:	06800074 	movhi	gp,1
    ori gp, gp, %lo(_gp)
     254:	d6ac4114 	ori	gp,gp,45316
 */
#ifndef ALT_SIM_OPTIMIZE
    /* Log that the BSS is about to be cleared. */
    ALT_LOG_PUTS(alt_log_msg_bss)

    movhi r2, %hi(__bss_start)
     258:	00800074 	movhi	r2,1
    ori r2, r2, %lo(__bss_start)
     25c:	1093fc14 	ori	r2,r2,20464

    movhi r3, %hi(__bss_end)
     260:	00c00074 	movhi	r3,1
    ori r3, r3, %lo(__bss_end)
     264:	18f91714 	ori	r3,r3,58460

    beq r2, r3, 1f
     268:	10c00326 	beq	r2,r3,278 <_start+0x30>

0:
    stw zero, (r2)
     26c:	10000015 	stw	zero,0(r2)
    addi r2, r2, 4
     270:	10800104 	addi	r2,r2,4
    bltu r2, r3, 0b
     274:	10fffd36 	bltu	r2,r3,26c <__alt_mem_VGA_Subsystem_Char_Buf_Subsystem_Onchip_SRAM+0xf700026c>
     * section aren't defined until alt_load() has been called).
     */
    mov   et, zero
#endif

    call alt_load
     278:	000456c0 	call	456c <alt_load>

    /* Log that alt_main is about to be called. */
    ALT_LOG_PUTS(alt_log_msg_alt_main)

    /* Call the C entry point. It should never return. */
    call alt_main
     27c:	00047000 	call	4700 <alt_main>

00000280 <alt_after_alt_main>:

    /* Wait in infinite loop in case alt_main does return. */
alt_after_alt_main:
    br alt_after_alt_main
     280:	003fff06 	br	280 <__alt_mem_VGA_Subsystem_Char_Buf_Subsystem_Onchip_SRAM+0xf7000280>

00000284 <display_hex>:
int state = OFF;
int elapse_time = ELAPSE_TIME;
int power_flag = 0;
int hex_display[]=   {0x3F, 0x6, 0x5B, 0x4F, 0x66, 0x6D, 0x7C, 0x7, 0x7F, 0x67}; // 0-9

int display_hex(int number){
     284:	defffe04 	addi	sp,sp,-8
     288:	df000115 	stw	fp,4(sp)
     28c:	df000104 	addi	fp,sp,4
     290:	e13fff15 	stw	r4,-4(fp)
	return hex_display[number];
     294:	00800074 	movhi	r2,1
     298:	1084e404 	addi	r2,r2,5008
     29c:	e0ffff17 	ldw	r3,-4(fp)
     2a0:	18c7883a 	add	r3,r3,r3
     2a4:	18c7883a 	add	r3,r3,r3
     2a8:	10c5883a 	add	r2,r2,r3
     2ac:	10800017 	ldw	r2,0(r2)
}
     2b0:	e037883a 	mov	sp,fp
     2b4:	df000017 	ldw	fp,0(sp)
     2b8:	dec00104 	addi	sp,sp,4
     2bc:	f800283a 	ret

000002c0 <power_off>:

void power_off(){
     2c0:	deffff04 	addi	sp,sp,-4
     2c4:	df000015 	stw	fp,0(sp)
     2c8:	d839883a 	mov	fp,sp
	    if(power_flag){
     2cc:	d0a7bd17 	ldw	r2,-24844(gp)
     2d0:	10000126 	beq	r2,zero,2d8 <power_off+0x18>
	    	state = IDLE;
     2d4:	d0200115 	stw	zero,-32764(gp)
	    }
}
     2d8:	0001883a 	nop
     2dc:	e037883a 	mov	sp,fp
     2e0:	df000017 	ldw	fp,0(sp)
     2e4:	dec00104 	addi	sp,sp,4
     2e8:	f800283a 	ret

000002ec <check_power_flag>:
void check_power_flag(){
     2ec:	deffff04 	addi	sp,sp,-4
     2f0:	df000015 	stw	fp,0(sp)
     2f4:	d839883a 	mov	fp,sp

	if ( SW_pointer >= 0x20000){
     2f8:	00bfc834 	movhi	r2,65312
     2fc:	10801004 	addi	r2,r2,64
     300:	10c00017 	ldw	r3,0(r2)
     304:	008000b4 	movhi	r2,2
     308:	18800316 	blt	r3,r2,318 <check_power_flag+0x2c>
		power_flag = 1;
     30c:	00800044 	movi	r2,1
     310:	d0a7bd15 	stw	r2,-24844(gp)
	}
	else {
		power_flag = 0;
		state = OFF;
	}
}
     314:	00000306 	br	324 <check_power_flag+0x38>

	if ( SW_pointer >= 0x20000){
		power_flag = 1;
	}
	else {
		power_flag = 0;
     318:	d027bd15 	stw	zero,-24844(gp)
		state = OFF;
     31c:	008000c4 	movi	r2,3
     320:	d0a00115 	stw	r2,-32764(gp)
	}
}
     324:	0001883a 	nop
     328:	e037883a 	mov	sp,fp
     32c:	df000017 	ldw	fp,0(sp)
     330:	dec00104 	addi	sp,sp,4
     334:	f800283a 	ret

00000338 <check_answer_resume_task1>:

void check_answer_resume_task1(){
     338:	defffe04 	addi	sp,sp,-8
     33c:	dfc00115 	stw	ra,4(sp)
     340:	df000015 	stw	fp,0(sp)
     344:	d839883a 	mov	fp,sp

	if ((question == answer) || (count == 0)){
     348:	d0e7bf17 	ldw	r3,-24836(gp)
     34c:	d0a7c317 	ldw	r2,-24820(gp)
     350:	18800226 	beq	r3,r2,35c <check_answer_resume_task1+0x24>
     354:	d0a00017 	ldw	r2,-32768(gp)
     358:	1000071e 	bne	r2,zero,378 <check_answer_resume_task1+0x40>
		count = COUNT_NUMBER;
     35c:	00800784 	movi	r2,30
     360:	d0a00015 	stw	r2,-32768(gp)
		number_of_question = number_of_question + 1;
     364:	d0a7be17 	ldw	r2,-24840(gp)
     368:	10800044 	addi	r2,r2,1
     36c:	d0a7be15 	stw	r2,-24840(gp)
		OSTaskResume(1);
     370:	01000044 	movi	r4,1
     374:	000c4f40 	call	c4f4 <OSTaskResume>
	}


}
     378:	0001883a 	nop
     37c:	e037883a 	mov	sp,fp
     380:	dfc00117 	ldw	ra,4(sp)
     384:	df000017 	ldw	fp,0(sp)
     388:	dec00204 	addi	sp,sp,8
     38c:	f800283a 	ret

00000390 <reset>:

void reset(){
     390:	deffff04 	addi	sp,sp,-4
     394:	df000015 	stw	fp,0(sp)
     398:	d839883a 	mov	fp,sp
	count = COUNT_NUMBER;
     39c:	00800784 	movi	r2,30
     3a0:	d0a00015 	stw	r2,-32768(gp)
	elapse_time = ELAPSE_TIME;
     3a4:	d027bc15 	stw	zero,-24848(gp)
	answer = 0;
     3a8:	d027c315 	stw	zero,-24820(gp)
	point =INIT_SCORE;
     3ac:	d027bb15 	stw	zero,-24852(gp)
	number_of_question = 0;
     3b0:	d027be15 	stw	zero,-24840(gp)

}
     3b4:	0001883a 	nop
     3b8:	e037883a 	mov	sp,fp
     3bc:	df000017 	ldw	fp,0(sp)
     3c0:	dec00104 	addi	sp,sp,4
     3c4:	f800283a 	ret

000003c8 <check_answer_add_point>:

void check_answer_add_point(){
     3c8:	deffff04 	addi	sp,sp,-4
     3cc:	df000015 	stw	fp,0(sp)
     3d0:	d839883a 	mov	fp,sp
	if (question == answer)
     3d4:	d0e7bf17 	ldw	r3,-24836(gp)
     3d8:	d0a7c317 	ldw	r2,-24820(gp)
     3dc:	1880031e 	bne	r3,r2,3ec <check_answer_add_point+0x24>
		point = point +1;
     3e0:	d0a7bb17 	ldw	r2,-24852(gp)
     3e4:	10800044 	addi	r2,r2,1
     3e8:	d0a7bb15 	stw	r2,-24852(gp)
}
     3ec:	0001883a 	nop
     3f0:	e037883a 	mov	sp,fp
     3f4:	df000017 	ldw	fp,0(sp)
     3f8:	dec00104 	addi	sp,sp,4
     3fc:	f800283a 	ret

00000400 <check_end_game>:

void check_end_game(){
     400:	deffff04 	addi	sp,sp,-4
     404:	df000015 	stw	fp,0(sp)
     408:	d839883a 	mov	fp,sp
	if (number_of_question == 10){
     40c:	d0a7be17 	ldw	r2,-24840(gp)
     410:	10800298 	cmpnei	r2,r2,10
     414:	1000021e 	bne	r2,zero,420 <check_end_game+0x20>
		state = FINISH;
     418:	00800104 	movi	r2,4
     41c:	d0a00115 	stw	r2,-32764(gp)
	}
}
     420:	0001883a 	nop
     424:	e037883a 	mov	sp,fp
     428:	df000017 	ldw	fp,0(sp)
     42c:	dec00104 	addi	sp,sp,4
     430:	f800283a 	ret

00000434 <submit_answer>:

void submit_answer(){
     434:	deffff04 	addi	sp,sp,-4
     438:	df000015 	stw	fp,0(sp)
     43c:	d839883a 	mov	fp,sp
	answer = (SW_pointer & 0xFF);
     440:	00bfc834 	movhi	r2,65312
     444:	10801004 	addi	r2,r2,64
     448:	10800017 	ldw	r2,0(r2)
     44c:	10803fcc 	andi	r2,r2,255
     450:	d0a7c315 	stw	r2,-24820(gp)
}
     454:	0001883a 	nop
     458:	e037883a 	mov	sp,fp
     45c:	df000017 	ldw	fp,0(sp)
     460:	dec00104 	addi	sp,sp,4
     464:	f800283a 	ret

00000468 <count_elapse>:
void count_elapse(){
     468:	deffff04 	addi	sp,sp,-4
     46c:	df000015 	stw	fp,0(sp)
     470:	d839883a 	mov	fp,sp
	count--;
     474:	d0a00017 	ldw	r2,-32768(gp)
     478:	10bfffc4 	addi	r2,r2,-1
     47c:	d0a00015 	stw	r2,-32768(gp)
	elapse_time++;
     480:	d0a7bc17 	ldw	r2,-24848(gp)
     484:	10800044 	addi	r2,r2,1
     488:	d0a7bc15 	stw	r2,-24848(gp)
	if (elapse_time == 6000){
     48c:	d0a7bc17 	ldw	r2,-24848(gp)
     490:	1085dc18 	cmpnei	r2,r2,6000
     494:	1000011e 	bne	r2,zero,49c <count_elapse+0x34>
		elapse_time = ELAPSE_TIME;
     498:	d027bc15 	stw	zero,-24848(gp)
	}
}
     49c:	0001883a 	nop
     4a0:	e037883a 	mov	sp,fp
     4a4:	df000017 	ldw	fp,0(sp)
     4a8:	dec00104 	addi	sp,sp,4
     4ac:	f800283a 	ret

000004b0 <main>:

int main(void)

{
     4b0:	defffe04 	addi	sp,sp,-8
     4b4:	dfc00115 	stw	ra,4(sp)
     4b8:	df000015 	stw	fp,0(sp)
     4bc:	d839883a 	mov	fp,sp

	dispSem = OSSemCreate(1);			 // create semaphore
     4c0:	01000044 	movi	r4,1
     4c4:	000aae40 	call	aae4 <OSSemCreate>
     4c8:	d0a7c515 	stw	r2,-24812(gp)
	BPMBox = OSMboxCreate((void *)0);  // create mailbox
     4cc:	0009883a 	mov	r4,zero
     4d0:	00087ac0 	call	87ac <OSMboxCreate>
     4d4:	d0a7c115 	stw	r2,-24828(gp)
    OSTaskCreate(mainTask, (void *)0, &mainTask_stk[TASK_STK_SIZE-1], 1);
     4d8:	01c00044 	movi	r7,1
     4dc:	018000b4 	movhi	r6,2
     4e0:	31a84d04 	addi	r6,r6,-24268
     4e4:	000b883a 	mov	r5,zero
     4e8:	01000034 	movhi	r4,0
     4ec:	21014404 	addi	r4,r4,1296
     4f0:	000b9840 	call	b984 <OSTaskCreate>

    OSStart();
     4f4:	00059c00 	call	59c0 <OSStart>
    return 0;
     4f8:	0005883a 	mov	r2,zero

}
     4fc:	e037883a 	mov	sp,fp
     500:	dfc00117 	ldw	ra,4(sp)
     504:	df000017 	ldw	fp,0(sp)
     508:	dec00204 	addi	sp,sp,8
     50c:	f800283a 	ret

00000510 <mainTask>:

void mainTask(void *pdata)
{
     510:	defffd04 	addi	sp,sp,-12
     514:	dfc00215 	stw	ra,8(sp)
     518:	df000115 	stw	fp,4(sp)
     51c:	df000104 	addi	fp,sp,4
     520:	e13fff15 	stw	r4,-4(fp)
    OSTaskCreate(countTask, (void *)0, &countTask_stk[TASK_STK_SIZE-1], Prio2);
     524:	01c00084 	movi	r7,2
     528:	01800074 	movhi	r6,1
     52c:	319c3404 	addi	r6,r6,28880
     530:	000b883a 	mov	r5,zero
     534:	01000034 	movhi	r4,0
     538:	21017d04 	addi	r4,r4,1524
     53c:	000b9840 	call	b984 <OSTaskCreate>

    OSTaskCreate(machine_state_task, (void *)0, &machineStateTask_stk[TASK_STK_SIZE-1], Prio3);
     540:	01c000c4 	movi	r7,3
     544:	01800074 	movhi	r6,1
     548:	31983404 	addi	r6,r6,24784
     54c:	000b883a 	mov	r5,zero
     550:	01000034 	movhi	r4,0
     554:	2101bc04 	addi	r4,r4,1776
     558:	000b9840 	call	b984 <OSTaskCreate>

    OSTaskCreate(display_LEDR_task, (void *)0, &display_LEDR_task_stk[TASK_STK_SIZE-1], Prio11);
     55c:	01c002c4 	movi	r7,11
     560:	018000b4 	movhi	r6,2
     564:	31a03404 	addi	r6,r6,-32560
     568:	000b883a 	mov	r5,zero
     56c:	01000034 	movhi	r4,0
     570:	2101f404 	addi	r4,r4,2000
     574:	000b9840 	call	b984 <OSTaskCreate>

    OSTaskCreate(display_task_HEX_task, (void *)0, &display_task_HEX_task_stk[TASK_STK_SIZE-1], Prio12);
     578:	01c00304 	movi	r7,12
     57c:	018000b4 	movhi	r6,2
     580:	31a43404 	addi	r6,r6,-28464
     584:	000b883a 	mov	r5,zero
     588:	01000034 	movhi	r4,0
     58c:	2102af04 	addi	r4,r4,2748
     590:	000b9840 	call	b984 <OSTaskCreate>

    OSTaskCreate(button_press_task, (void *)0, &button_press_task_stk[TASK_STK_SIZE-1], Prio13);
     594:	01c00344 	movi	r7,13
     598:	018000b4 	movhi	r6,2
     59c:	31ac4d04 	addi	r6,r6,-20172
     5a0:	000b883a 	mov	r5,zero
     5a4:	01000034 	movhi	r4,0
     5a8:	21047b04 	addi	r4,r4,4588
     5ac:	000b9840 	call	b984 <OSTaskCreate>

    while (1)
    	{
			printf("Main Task run\n");
     5b0:	01000074 	movhi	r4,1
     5b4:	21040a04 	addi	r4,r4,4136
     5b8:	00014800 	call	1480 <puts>


			OSSemPend(dispSem, 0 , &err);
     5bc:	d0a7c517 	ldw	r2,-24812(gp)
     5c0:	d1a7c204 	addi	r6,gp,-24824
     5c4:	000b883a 	mov	r5,zero
     5c8:	1009883a 	mov	r4,r2
     5cc:	000adfc0 	call	adfc <OSSemPend>
			question = rand() & 0xFF;
     5d0:	00014ac0 	call	14ac <rand>
     5d4:	10803fcc 	andi	r2,r2,255
     5d8:	d0a7bf15 	stw	r2,-24836(gp)
			OSSemPost(dispSem);
     5dc:	d0a7c517 	ldw	r2,-24812(gp)
     5e0:	1009883a 	mov	r4,r2
     5e4:	000b1740 	call	b174 <OSSemPost>
			OSTaskSuspend(OS_PRIO_SELF);
     5e8:	01003fc4 	movi	r4,255
     5ec:	000c8880 	call	c888 <OSTaskSuspend>

    }
     5f0:	003fef06 	br	5b0 <__alt_mem_VGA_Subsystem_Char_Buf_Subsystem_Onchip_SRAM+0xf70005b0>

000005f4 <countTask>:

/**
 * count Task
 */
void countTask(void *pdata)
{
     5f4:	defffd04 	addi	sp,sp,-12
     5f8:	dfc00215 	stw	ra,8(sp)
     5fc:	df000115 	stw	fp,4(sp)
     600:	df000104 	addi	fp,sp,4
     604:	e13fff15 	stw	r4,-4(fp)

	while(1)
	{
	      //test message
							   //test pend mailbox
		statemsg = (int *)OSMboxPend(BPMBox,10 ,&mailBoxErr);
     608:	d0a7c117 	ldw	r2,-24828(gp)
     60c:	d1a7c004 	addi	r6,gp,-24832
     610:	01400284 	movi	r5,10
     614:	1009883a 	mov	r4,r2
     618:	0008ac00 	call	8ac0 <OSMboxPend>
     61c:	d0a7c415 	stw	r2,-24816(gp)
		if (mailBoxErr == OS_NO_ERR){
     620:	d0a7c003 	ldbu	r2,-24832(gp)
     624:	10803fcc 	andi	r2,r2,255
     628:	10000c1e 	bne	r2,zero,65c <countTask+0x68>
			OSSemPend(dispSem, 0 , &err);
     62c:	d0a7c517 	ldw	r2,-24812(gp)
     630:	d1a7c204 	addi	r6,gp,-24824
     634:	000b883a 	mov	r5,zero
     638:	1009883a 	mov	r4,r2
     63c:	000adfc0 	call	adfc <OSSemPend>
			state = *statemsg;
     640:	d0a7c417 	ldw	r2,-24816(gp)
     644:	10800017 	ldw	r2,0(r2)
     648:	d0a00115 	stw	r2,-32764(gp)
			OSSemPost(dispSem);
     64c:	d0a7c517 	ldw	r2,-24812(gp)
     650:	1009883a 	mov	r4,r2
     654:	000b1740 	call	b174 <OSSemPost>
     658:	00000306 	br	668 <countTask+0x74>
		}
		else{
			printf("there is some err in count task \n");
     65c:	01000074 	movhi	r4,1
     660:	21040e04 	addi	r4,r4,4152
     664:	00014800 	call	1480 <puts>
		}

			switch(state){
     668:	d0a00117 	ldw	r2,-32764(gp)
     66c:	10000326 	beq	r2,zero,67c <countTask+0x88>
     670:	10800060 	cmpeqi	r2,r2,1
     674:	10000b1e 	bne	r2,zero,6a4 <countTask+0xb0>
					check_answer_resume_task1();
					OSSemPost(dispSem);
					break;

				default:
					break;
     678:	00001706 	br	6d8 <countTask+0xe4>
			printf("there is some err in count task \n");
		}

			switch(state){
				case IDLE:
					OSSemPend(dispSem, 0 , &err);
     67c:	d0a7c517 	ldw	r2,-24812(gp)
     680:	d1a7c204 	addi	r6,gp,-24824
     684:	000b883a 	mov	r5,zero
     688:	1009883a 	mov	r4,r2
     68c:	000adfc0 	call	adfc <OSSemPend>
					reset();
     690:	00003900 	call	390 <reset>
					OSSemPost(dispSem);
     694:	d0a7c517 	ldw	r2,-24812(gp)
     698:	1009883a 	mov	r4,r2
     69c:	000b1740 	call	b174 <OSSemPost>
					break;
     6a0:	00000d06 	br	6d8 <countTask+0xe4>
				case COUNT:
					OSSemPend(dispSem, 0 , &err);
     6a4:	d0a7c517 	ldw	r2,-24812(gp)
     6a8:	d1a7c204 	addi	r6,gp,-24824
     6ac:	000b883a 	mov	r5,zero
     6b0:	1009883a 	mov	r4,r2
     6b4:	000adfc0 	call	adfc <OSSemPend>
					count_elapse();
     6b8:	00004680 	call	468 <count_elapse>
					check_answer_add_point();
     6bc:	00003c80 	call	3c8 <check_answer_add_point>
					check_end_game();
     6c0:	00004000 	call	400 <check_end_game>
					check_answer_resume_task1();
     6c4:	00003380 	call	338 <check_answer_resume_task1>
					OSSemPost(dispSem);
     6c8:	d0a7c517 	ldw	r2,-24812(gp)
     6cc:	1009883a 	mov	r4,r2
     6d0:	000b1740 	call	b174 <OSSemPost>
					break;
     6d4:	0001883a 	nop

			// uncommend this one to do testing
//				OSTimeDly(1); // debug mode make it run faster

		 // uncommend this one to run on real environment
				OSTimeDlyHMSM(0, 0, 1,0);
     6d8:	000f883a 	mov	r7,zero
     6dc:	01800044 	movi	r6,1
     6e0:	000b883a 	mov	r5,zero
     6e4:	0009883a 	mov	r4,zero
     6e8:	000cd040 	call	cd04 <OSTimeDlyHMSM>
	}
     6ec:	003fc606 	br	608 <__alt_mem_VGA_Subsystem_Char_Buf_Subsystem_Onchip_SRAM+0xf7000608>

000006f0 <machine_state_task>:

/**
 * State machine task . This task run state machine
 */
void machine_state_task(void* pdata)
{
     6f0:	defffd04 	addi	sp,sp,-12
     6f4:	dfc00215 	stw	ra,8(sp)
     6f8:	df000115 	stw	fp,4(sp)
     6fc:	df000104 	addi	fp,sp,4
     700:	e13fff15 	stw	r4,-4(fp)

	while(1)
	{
		      //test message

		statemsg = (int *)OSMboxPend(BPMBox,10 ,&mailBoxErr);
     704:	d0a7c117 	ldw	r2,-24828(gp)
     708:	d1a7c004 	addi	r6,gp,-24832
     70c:	01400284 	movi	r5,10
     710:	1009883a 	mov	r4,r2
     714:	0008ac00 	call	8ac0 <OSMboxPend>
     718:	d0a7c415 	stw	r2,-24816(gp)
		if (mailBoxErr == OS_NO_ERR){
     71c:	d0a7c003 	ldbu	r2,-24832(gp)
     720:	10803fcc 	andi	r2,r2,255
     724:	10000c1e 	bne	r2,zero,758 <machine_state_task+0x68>
			OSSemPend(dispSem, 0 , &err);
     728:	d0a7c517 	ldw	r2,-24812(gp)
     72c:	d1a7c204 	addi	r6,gp,-24824
     730:	000b883a 	mov	r5,zero
     734:	1009883a 	mov	r4,r2
     738:	000adfc0 	call	adfc <OSSemPend>
			state = *statemsg;
     73c:	d0a7c417 	ldw	r2,-24816(gp)
     740:	10800017 	ldw	r2,0(r2)
     744:	d0a00115 	stw	r2,-32764(gp)
			OSSemPost(dispSem);
     748:	d0a7c517 	ldw	r2,-24812(gp)
     74c:	1009883a 	mov	r4,r2
     750:	000b1740 	call	b174 <OSSemPost>
     754:	00000306 	br	764 <machine_state_task+0x74>
		}
		else{
			printf("there is some err in machine state task \n");
     758:	01000074 	movhi	r4,1
     75c:	21041704 	addi	r4,r4,4188
     760:	00014800 	call	1480 <puts>
		}
		switch(state){
     764:	d0a00117 	ldw	r2,-32764(gp)
     768:	108000e0 	cmpeqi	r2,r2,3
     76c:	10000b26 	beq	r2,zero,79c <machine_state_task+0xac>
			case OFF:
				OSSemPend(dispSem, 0 , &err);
     770:	d0a7c517 	ldw	r2,-24812(gp)
     774:	d1a7c204 	addi	r6,gp,-24824
     778:	000b883a 	mov	r5,zero
     77c:	1009883a 	mov	r4,r2
     780:	000adfc0 	call	adfc <OSSemPend>
				check_power_flag();
     784:	00002ec0 	call	2ec <check_power_flag>
				power_off();
     788:	00002c00 	call	2c0 <power_off>
				OSSemPost(dispSem);
     78c:	d0a7c517 	ldw	r2,-24812(gp)
     790:	1009883a 	mov	r4,r2
     794:	000b1740 	call	b174 <OSSemPost>
				break;
     798:	00000a06 	br	7c4 <machine_state_task+0xd4>
			default:
				OSSemPend(dispSem, 0 , &err);
     79c:	d0a7c517 	ldw	r2,-24812(gp)
     7a0:	d1a7c204 	addi	r6,gp,-24824
     7a4:	000b883a 	mov	r5,zero
     7a8:	1009883a 	mov	r4,r2
     7ac:	000adfc0 	call	adfc <OSSemPend>
				check_power_flag();
     7b0:	00002ec0 	call	2ec <check_power_flag>
				OSSemPost(dispSem);
     7b4:	d0a7c517 	ldw	r2,-24812(gp)
     7b8:	1009883a 	mov	r4,r2
     7bc:	000b1740 	call	b174 <OSSemPost>
				break;
     7c0:	0001883a 	nop
		}
		OSTimeDly(1);
     7c4:	01000044 	movi	r4,1
     7c8:	000cc000 	call	cc00 <OSTimeDly>

	}
     7cc:	003fcd06 	br	704 <__alt_mem_VGA_Subsystem_Char_Buf_Subsystem_Onchip_SRAM+0xf7000704>

000007d0 <display_LEDR_task>:




void display_LEDR_task(void *pdata)
{
     7d0:	defffd04 	addi	sp,sp,-12
     7d4:	dfc00215 	stw	ra,8(sp)
     7d8:	df000115 	stw	fp,4(sp)
     7dc:	df000104 	addi	fp,sp,4
     7e0:	e13fff15 	stw	r4,-4(fp)

	while(1)
	{
	      //test message

		statemsg = (int *)OSMboxPend(BPMBox,10 ,&mailBoxErr);
     7e4:	d0a7c117 	ldw	r2,-24828(gp)
     7e8:	d1a7c004 	addi	r6,gp,-24832
     7ec:	01400284 	movi	r5,10
     7f0:	1009883a 	mov	r4,r2
     7f4:	0008ac00 	call	8ac0 <OSMboxPend>
     7f8:	d0a7c415 	stw	r2,-24816(gp)
		if (mailBoxErr == OS_NO_ERR){
     7fc:	d0a7c003 	ldbu	r2,-24832(gp)
     800:	10803fcc 	andi	r2,r2,255
     804:	10000c1e 	bne	r2,zero,838 <display_LEDR_task+0x68>

			OSSemPend(dispSem, 0 , &err);
     808:	d0a7c517 	ldw	r2,-24812(gp)
     80c:	d1a7c204 	addi	r6,gp,-24824
     810:	000b883a 	mov	r5,zero
     814:	1009883a 	mov	r4,r2
     818:	000adfc0 	call	adfc <OSSemPend>
			state = *statemsg;
     81c:	d0a7c417 	ldw	r2,-24816(gp)
     820:	10800017 	ldw	r2,0(r2)
     824:	d0a00115 	stw	r2,-32764(gp)
			OSSemPost(dispSem);
     828:	d0a7c517 	ldw	r2,-24812(gp)
     82c:	1009883a 	mov	r4,r2
     830:	000b1740 	call	b174 <OSSemPost>
     834:	00000306 	br	844 <display_LEDR_task+0x74>
		}
		else{
			printf("there is some err in display LEDR task \n");
     838:	01000074 	movhi	r4,1
     83c:	21042204 	addi	r4,r4,4232
     840:	00014800 	call	1480 <puts>
		}
        switch (state){
     844:	d0a00117 	ldw	r2,-32764(gp)
     848:	10c00060 	cmpeqi	r3,r2,1
     84c:	1800371e 	bne	r3,zero,92c <display_LEDR_task+0x15c>
     850:	10c00088 	cmpgei	r3,r2,2
     854:	1800021e 	bne	r3,zero,860 <display_LEDR_task+0x90>
     858:	10001826 	beq	r2,zero,8bc <display_LEDR_task+0xec>
     85c:	00007d06 	br	a54 <display_LEDR_task+0x284>
     860:	10c000a0 	cmpeqi	r3,r2,2
     864:	18005f1e 	bne	r3,zero,9e4 <display_LEDR_task+0x214>
     868:	108000e0 	cmpeqi	r2,r2,3
     86c:	10007926 	beq	r2,zero,a54 <display_LEDR_task+0x284>
        	case OFF:
        		OSSemPend(dispSem, 0 , &err);
     870:	d0a7c517 	ldw	r2,-24812(gp)
     874:	d1a7c204 	addi	r6,gp,-24824
     878:	000b883a 	mov	r5,zero
     87c:	1009883a 	mov	r4,r2
     880:	000adfc0 	call	adfc <OSSemPend>
        		SW_pointer &= 0x00;
     884:	00bfc834 	movhi	r2,65312
     888:	10801004 	addi	r2,r2,64
     88c:	10800017 	ldw	r2,0(r2)
     890:	00bfc834 	movhi	r2,65312
     894:	10801004 	addi	r2,r2,64
     898:	10000015 	stw	zero,0(r2)
        		LEDR_pointer &= 0x00;
     89c:	00bfc834 	movhi	r2,65312
     8a0:	10800017 	ldw	r2,0(r2)
     8a4:	00bfc834 	movhi	r2,65312
     8a8:	10000015 	stw	zero,0(r2)
        		OSSemPost(dispSem);
     8ac:	d0a7c517 	ldw	r2,-24812(gp)
     8b0:	1009883a 	mov	r4,r2
     8b4:	000b1740 	call	b174 <OSSemPost>
        		break;
     8b8:	00007a06 	br	aa4 <display_LEDR_task+0x2d4>
        	case IDLE:
        		OSSemPend(dispSem, 0 , &err);
     8bc:	d0a7c517 	ldw	r2,-24812(gp)
     8c0:	d1a7c204 	addi	r6,gp,-24824
     8c4:	000b883a 	mov	r5,zero
     8c8:	1009883a 	mov	r4,r2
     8cc:	000adfc0 	call	adfc <OSSemPend>
        		SW_pointer &= 0x00;
     8d0:	00bfc834 	movhi	r2,65312
     8d4:	10801004 	addi	r2,r2,64
     8d8:	10800017 	ldw	r2,0(r2)
     8dc:	00bfc834 	movhi	r2,65312
     8e0:	10801004 	addi	r2,r2,64
     8e4:	10000015 	stw	zero,0(r2)
        		LEDR_pointer &= 0x00;
     8e8:	00bfc834 	movhi	r2,65312
     8ec:	10800017 	ldw	r2,0(r2)
     8f0:	00bfc834 	movhi	r2,65312
     8f4:	10000015 	stw	zero,0(r2)
        		LEDR_pointer |= (SW_pointer & 0x20000);
     8f8:	00bfc834 	movhi	r2,65312
     8fc:	10801004 	addi	r2,r2,64
     900:	10800017 	ldw	r2,0(r2)
     904:	10c000ac 	andhi	r3,r2,2
     908:	00bfc834 	movhi	r2,65312
     90c:	013fc834 	movhi	r4,65312
     910:	21000017 	ldw	r4,0(r4)
     914:	20c6b03a 	or	r3,r4,r3
     918:	10c00015 	stw	r3,0(r2)
        		OSSemPost(dispSem);
     91c:	d0a7c517 	ldw	r2,-24812(gp)
     920:	1009883a 	mov	r4,r2
     924:	000b1740 	call	b174 <OSSemPost>
        		break;
     928:	00005e06 	br	aa4 <display_LEDR_task+0x2d4>
        	case COUNT:
        		OSSemPend(dispSem, 0 , &err);
     92c:	d0a7c517 	ldw	r2,-24812(gp)
     930:	d1a7c204 	addi	r6,gp,-24824
     934:	000b883a 	mov	r5,zero
     938:	1009883a 	mov	r4,r2
     93c:	000adfc0 	call	adfc <OSSemPend>
        		SW_pointer &= (0x20000 & SW_pointer); // clear the switch
     940:	00bfc834 	movhi	r2,65312
     944:	10801004 	addi	r2,r2,64
     948:	10800017 	ldw	r2,0(r2)
     94c:	110000ac 	andhi	r4,r2,2
     950:	00bfc834 	movhi	r2,65312
     954:	10801004 	addi	r2,r2,64
     958:	00ffc834 	movhi	r3,65312
     95c:	18c01004 	addi	r3,r3,64
     960:	18c00017 	ldw	r3,0(r3)
     964:	1906703a 	and	r3,r3,r4
     968:	10c00015 	stw	r3,0(r2)
        		LEDR_pointer &= (0x20000 & SW_pointer); // clear the led
     96c:	00bfc834 	movhi	r2,65312
     970:	10801004 	addi	r2,r2,64
     974:	10800017 	ldw	r2,0(r2)
     978:	10c000ac 	andhi	r3,r2,2
     97c:	00bfc834 	movhi	r2,65312
     980:	013fc834 	movhi	r4,65312
     984:	21000017 	ldw	r4,0(r4)
     988:	20c6703a 	and	r3,r4,r3
     98c:	10c00015 	stw	r3,0(r2)
        		if(SW_pointer & (1 << 16)){
     990:	00bfc834 	movhi	r2,65312
     994:	10801004 	addi	r2,r2,64
     998:	10800017 	ldw	r2,0(r2)
     99c:	1080006c 	andhi	r2,r2,1
     9a0:	10000c26 	beq	r2,zero,9d4 <display_LEDR_task+0x204>
        			LEDR_pointer |= (question & 0xFF ) | (SW_pointer & 0x30000);
     9a4:	d0a7bf17 	ldw	r2,-24836(gp)
     9a8:	10c03fcc 	andi	r3,r2,255
     9ac:	00bfc834 	movhi	r2,65312
     9b0:	10801004 	addi	r2,r2,64
     9b4:	10800017 	ldw	r2,0(r2)
     9b8:	108000ec 	andhi	r2,r2,3
     9bc:	1886b03a 	or	r3,r3,r2
     9c0:	00bfc834 	movhi	r2,65312
     9c4:	013fc834 	movhi	r4,65312
     9c8:	21000017 	ldw	r4,0(r4)
     9cc:	20c6b03a 	or	r3,r4,r3
     9d0:	10c00015 	stw	r3,0(r2)
        		}
        		OSSemPost(dispSem);
     9d4:	d0a7c517 	ldw	r2,-24812(gp)
     9d8:	1009883a 	mov	r4,r2
     9dc:	000b1740 	call	b174 <OSSemPost>
        		break;
     9e0:	00003006 	br	aa4 <display_LEDR_task+0x2d4>
        	case PAUSE:
        		OSSemPend(dispSem, 0 , &err);
     9e4:	d0a7c517 	ldw	r2,-24812(gp)
     9e8:	d1a7c204 	addi	r6,gp,-24824
     9ec:	000b883a 	mov	r5,zero
     9f0:	1009883a 	mov	r4,r2
     9f4:	000adfc0 	call	adfc <OSSemPend>
        		SW_pointer &= 0x00;
     9f8:	00bfc834 	movhi	r2,65312
     9fc:	10801004 	addi	r2,r2,64
     a00:	10800017 	ldw	r2,0(r2)
     a04:	00bfc834 	movhi	r2,65312
     a08:	10801004 	addi	r2,r2,64
     a0c:	10000015 	stw	zero,0(r2)
        		LEDR_pointer &= 0x00;
     a10:	00bfc834 	movhi	r2,65312
     a14:	10800017 	ldw	r2,0(r2)
     a18:	00bfc834 	movhi	r2,65312
     a1c:	10000015 	stw	zero,0(r2)
        		LEDR_pointer |= (0x30000 & SW_pointer); // clear the led
     a20:	00bfc834 	movhi	r2,65312
     a24:	10801004 	addi	r2,r2,64
     a28:	10800017 	ldw	r2,0(r2)
     a2c:	10c000ec 	andhi	r3,r2,3
     a30:	00bfc834 	movhi	r2,65312
     a34:	013fc834 	movhi	r4,65312
     a38:	21000017 	ldw	r4,0(r4)
     a3c:	20c6b03a 	or	r3,r4,r3
     a40:	10c00015 	stw	r3,0(r2)
        		OSSemPost(dispSem);
     a44:	d0a7c517 	ldw	r2,-24812(gp)
     a48:	1009883a 	mov	r4,r2
     a4c:	000b1740 	call	b174 <OSSemPost>
        		break;
     a50:	00001406 	br	aa4 <display_LEDR_task+0x2d4>
        	default:
        		SW_pointer &= 0x00;
     a54:	00bfc834 	movhi	r2,65312
     a58:	10801004 	addi	r2,r2,64
     a5c:	10800017 	ldw	r2,0(r2)
     a60:	00bfc834 	movhi	r2,65312
     a64:	10801004 	addi	r2,r2,64
     a68:	10000015 	stw	zero,0(r2)
        		LEDR_pointer &= 0x00;
     a6c:	00bfc834 	movhi	r2,65312
     a70:	10800017 	ldw	r2,0(r2)
     a74:	00bfc834 	movhi	r2,65312
     a78:	10000015 	stw	zero,0(r2)
        		LEDR_pointer = (SW_pointer & 0x20000);
     a7c:	00ffc834 	movhi	r3,65312
     a80:	00bfc834 	movhi	r2,65312
     a84:	10801004 	addi	r2,r2,64
     a88:	10800017 	ldw	r2,0(r2)
     a8c:	108000ac 	andhi	r2,r2,2
     a90:	18800015 	stw	r2,0(r3)
        		OSSemPost(dispSem);
     a94:	d0a7c517 	ldw	r2,-24812(gp)
     a98:	1009883a 	mov	r4,r2
     a9c:	000b1740 	call	b174 <OSSemPost>
        		break;
     aa0:	0001883a 	nop
        }


        OSTimeDlyHMSM(0, 0, 0, 100);
     aa4:	01c01904 	movi	r7,100
     aa8:	000d883a 	mov	r6,zero
     aac:	000b883a 	mov	r5,zero
     ab0:	0009883a 	mov	r4,zero
     ab4:	000cd040 	call	cd04 <OSTimeDlyHMSM>
    }
     ab8:	003f4a06 	br	7e4 <__alt_mem_VGA_Subsystem_Char_Buf_Subsystem_Onchip_SRAM+0xf70007e4>

00000abc <display_task_HEX_task>:
}



void display_task_HEX_task(void *pdata)
{
     abc:	defffb04 	addi	sp,sp,-20
     ac0:	dfc00415 	stw	ra,16(sp)
     ac4:	df000315 	stw	fp,12(sp)
     ac8:	dc400215 	stw	r17,8(sp)
     acc:	dc000115 	stw	r16,4(sp)
     ad0:	df000304 	addi	fp,sp,12
     ad4:	e13ffd15 	stw	r4,-12(fp)

	while(1)
	{
	      //test message
							   //test pend mailbox
		statemsg = (int *)OSMboxPend(BPMBox,10 ,&mailBoxErr);
     ad8:	d0a7c117 	ldw	r2,-24828(gp)
     adc:	d1a7c004 	addi	r6,gp,-24832
     ae0:	01400284 	movi	r5,10
     ae4:	1009883a 	mov	r4,r2
     ae8:	0008ac00 	call	8ac0 <OSMboxPend>
     aec:	d0a7c415 	stw	r2,-24816(gp)
		if (mailBoxErr == OS_NO_ERR){
     af0:	d0a7c003 	ldbu	r2,-24832(gp)
     af4:	10803fcc 	andi	r2,r2,255
     af8:	10000c1e 	bne	r2,zero,b2c <display_task_HEX_task+0x70>

			OSSemPend(dispSem, 0 , &err);
     afc:	d0a7c517 	ldw	r2,-24812(gp)
     b00:	d1a7c204 	addi	r6,gp,-24824
     b04:	000b883a 	mov	r5,zero
     b08:	1009883a 	mov	r4,r2
     b0c:	000adfc0 	call	adfc <OSSemPend>
			state = *statemsg;
     b10:	d0a7c417 	ldw	r2,-24816(gp)
     b14:	10800017 	ldw	r2,0(r2)
     b18:	d0a00115 	stw	r2,-32764(gp)
			OSSemPost(dispSem);
     b1c:	d0a7c517 	ldw	r2,-24812(gp)
     b20:	1009883a 	mov	r4,r2
     b24:	000b1740 	call	b174 <OSSemPost>
     b28:	00000306 	br	b38 <display_task_HEX_task+0x7c>
		}
		else{
			printf("there is some err hex task display\n");
     b2c:	01000074 	movhi	r4,1
     b30:	21042c04 	addi	r4,r4,4272
     b34:	00014800 	call	1480 <puts>
		}




		switch(state){
     b38:	d0a00117 	ldw	r2,-32764(gp)
     b3c:	10c00168 	cmpgeui	r3,r2,5
     b40:	18015d1e 	bne	r3,zero,10b8 <display_task_HEX_task+0x5fc>
     b44:	100690ba 	slli	r3,r2,2
     b48:	00800034 	movhi	r2,0
     b4c:	1082d704 	addi	r2,r2,2908
     b50:	1885883a 	add	r2,r3,r2
     b54:	10800017 	ldw	r2,0(r2)
     b58:	1000683a 	jmp	r2
     b5c:	00000bc4 	movi	zero,47
     b60:	00000d2c 	andhi	zero,zero,52
     b64:	00000e94 	movui	zero,58
     b68:	00000b70 	cmpltui	zero,zero,45
     b6c:	00000f70 	cmpltui	zero,zero,61
						case OFF:
							OSSemPend(dispSem, 0 , &err);
     b70:	d0a7c517 	ldw	r2,-24812(gp)
     b74:	d1a7c204 	addi	r6,gp,-24824
     b78:	000b883a 	mov	r5,zero
     b7c:	1009883a 	mov	r4,r2
     b80:	000adfc0 	call	adfc <OSSemPend>
							HEX3_HEX0_pointer &= 0x00;
     b84:	00bfc834 	movhi	r2,65312
     b88:	10800804 	addi	r2,r2,32
     b8c:	10800017 	ldw	r2,0(r2)
     b90:	00bfc834 	movhi	r2,65312
     b94:	10800804 	addi	r2,r2,32
     b98:	10000015 	stw	zero,0(r2)
							HEX7_HEX4_pointer &= 0x00;
     b9c:	00bfc834 	movhi	r2,65312
     ba0:	10800c04 	addi	r2,r2,48
     ba4:	10800017 	ldw	r2,0(r2)
     ba8:	00bfc834 	movhi	r2,65312
     bac:	10800c04 	addi	r2,r2,48
     bb0:	10000015 	stw	zero,0(r2)
							OSSemPost(dispSem);
     bb4:	d0a7c517 	ldw	r2,-24812(gp)
     bb8:	1009883a 	mov	r4,r2
     bbc:	000b1740 	call	b174 <OSSemPost>
							break;
     bc0:	00018706 	br	11e0 <display_task_HEX_task+0x724>
						case IDLE:
							OSSemPend(dispSem, 0 , &err);
     bc4:	d0a7c517 	ldw	r2,-24812(gp)
     bc8:	d1a7c204 	addi	r6,gp,-24824
     bcc:	000b883a 	mov	r5,zero
     bd0:	1009883a 	mov	r4,r2
     bd4:	000adfc0 	call	adfc <OSSemPend>
							HEX3_HEX0_pointer &= 0x00;
     bd8:	00bfc834 	movhi	r2,65312
     bdc:	10800804 	addi	r2,r2,32
     be0:	10800017 	ldw	r2,0(r2)
     be4:	00bfc834 	movhi	r2,65312
     be8:	10800804 	addi	r2,r2,32
     bec:	10000015 	stw	zero,0(r2)
							HEX7_HEX4_pointer &= 0x00;
     bf0:	00bfc834 	movhi	r2,65312
     bf4:	10800c04 	addi	r2,r2,48
     bf8:	10800017 	ldw	r2,0(r2)
     bfc:	00bfc834 	movhi	r2,65312
     c00:	10800c04 	addi	r2,r2,48
     c04:	10000015 	stw	zero,0(r2)
							HEX3_HEX0_pointer |= (display_hex(question%10) & 0xFF) | ((display_hex((question/10)%10) << 8) & 0xFF00) | ((display_hex(question/100) << 16) & 0xFF0000);
     c08:	d0a7bf17 	ldw	r2,-24836(gp)
     c0c:	00c00284 	movi	r3,10
     c10:	10c7283a 	div	r3,r2,r3
     c14:	18c002a4 	muli	r3,r3,10
     c18:	10c5c83a 	sub	r2,r2,r3
     c1c:	1009883a 	mov	r4,r2
     c20:	00002840 	call	284 <display_hex>
     c24:	14003fcc 	andi	r16,r2,255
     c28:	d0e7bf17 	ldw	r3,-24836(gp)
     c2c:	00800284 	movi	r2,10
     c30:	1885283a 	div	r2,r3,r2
     c34:	00c00284 	movi	r3,10
     c38:	10c7283a 	div	r3,r2,r3
     c3c:	18c002a4 	muli	r3,r3,10
     c40:	10c5c83a 	sub	r2,r2,r3
     c44:	1009883a 	mov	r4,r2
     c48:	00002840 	call	284 <display_hex>
     c4c:	1004923a 	slli	r2,r2,8
     c50:	10bfffcc 	andi	r2,r2,65535
     c54:	80a0b03a 	or	r16,r16,r2
     c58:	d0e7bf17 	ldw	r3,-24836(gp)
     c5c:	00801904 	movi	r2,100
     c60:	1885283a 	div	r2,r3,r2
     c64:	1009883a 	mov	r4,r2
     c68:	00002840 	call	284 <display_hex>
     c6c:	1004943a 	slli	r2,r2,16
     c70:	10803fec 	andhi	r2,r2,255
     c74:	8088b03a 	or	r4,r16,r2
     c78:	00bfc834 	movhi	r2,65312
     c7c:	10800804 	addi	r2,r2,32
     c80:	00ffc834 	movhi	r3,65312
     c84:	18c00804 	addi	r3,r3,32
     c88:	18c00017 	ldw	r3,0(r3)
     c8c:	1906b03a 	or	r3,r3,r4
     c90:	10c00015 	stw	r3,0(r2)
							HEX7_HEX4_pointer = display_hex(count%10) | (display_hex(count/10) << 8)| (display_hex(point%10)<< 16 )| (display_hex(point/10) << 24);
     c94:	043fc834 	movhi	r16,65312
     c98:	84000c04 	addi	r16,r16,48
     c9c:	d0a00017 	ldw	r2,-32768(gp)
     ca0:	00c00284 	movi	r3,10
     ca4:	10c7283a 	div	r3,r2,r3
     ca8:	18c002a4 	muli	r3,r3,10
     cac:	10c5c83a 	sub	r2,r2,r3
     cb0:	1009883a 	mov	r4,r2
     cb4:	00002840 	call	284 <display_hex>
     cb8:	1023883a 	mov	r17,r2
     cbc:	d0e00017 	ldw	r3,-32768(gp)
     cc0:	00800284 	movi	r2,10
     cc4:	1885283a 	div	r2,r3,r2
     cc8:	1009883a 	mov	r4,r2
     ccc:	00002840 	call	284 <display_hex>
     cd0:	1004923a 	slli	r2,r2,8
     cd4:	88a2b03a 	or	r17,r17,r2
     cd8:	d0a7bb17 	ldw	r2,-24852(gp)
     cdc:	00c00284 	movi	r3,10
     ce0:	10c7283a 	div	r3,r2,r3
     ce4:	18c002a4 	muli	r3,r3,10
     ce8:	10c5c83a 	sub	r2,r2,r3
     cec:	1009883a 	mov	r4,r2
     cf0:	00002840 	call	284 <display_hex>
     cf4:	1004943a 	slli	r2,r2,16
     cf8:	88a2b03a 	or	r17,r17,r2
     cfc:	d0e7bb17 	ldw	r3,-24852(gp)
     d00:	00800284 	movi	r2,10
     d04:	1885283a 	div	r2,r3,r2
     d08:	1009883a 	mov	r4,r2
     d0c:	00002840 	call	284 <display_hex>
     d10:	1004963a 	slli	r2,r2,24
     d14:	8884b03a 	or	r2,r17,r2
     d18:	80800015 	stw	r2,0(r16)
							OSSemPost(dispSem);
     d1c:	d0a7c517 	ldw	r2,-24812(gp)
     d20:	1009883a 	mov	r4,r2
     d24:	000b1740 	call	b174 <OSSemPost>
							break;
     d28:	00012d06 	br	11e0 <display_task_HEX_task+0x724>
						case COUNT:
							OSSemPend(dispSem, 0 , &err);
     d2c:	d0a7c517 	ldw	r2,-24812(gp)
     d30:	d1a7c204 	addi	r6,gp,-24824
     d34:	000b883a 	mov	r5,zero
     d38:	1009883a 	mov	r4,r2
     d3c:	000adfc0 	call	adfc <OSSemPend>
							HEX3_HEX0_pointer &= 0x00;
     d40:	00bfc834 	movhi	r2,65312
     d44:	10800804 	addi	r2,r2,32
     d48:	10800017 	ldw	r2,0(r2)
     d4c:	00bfc834 	movhi	r2,65312
     d50:	10800804 	addi	r2,r2,32
     d54:	10000015 	stw	zero,0(r2)
							HEX7_HEX4_pointer &= 0x00;
     d58:	00bfc834 	movhi	r2,65312
     d5c:	10800c04 	addi	r2,r2,48
     d60:	10800017 	ldw	r2,0(r2)
     d64:	00bfc834 	movhi	r2,65312
     d68:	10800c04 	addi	r2,r2,48
     d6c:	10000015 	stw	zero,0(r2)
							HEX3_HEX0_pointer |= (display_hex(question%10) & 0xFF) | ((display_hex((question/10)%10) << 8) & 0xFF00) | ((display_hex(question/100) << 16) & 0xFF0000);
     d70:	d0a7bf17 	ldw	r2,-24836(gp)
     d74:	00c00284 	movi	r3,10
     d78:	10c7283a 	div	r3,r2,r3
     d7c:	18c002a4 	muli	r3,r3,10
     d80:	10c5c83a 	sub	r2,r2,r3
     d84:	1009883a 	mov	r4,r2
     d88:	00002840 	call	284 <display_hex>
     d8c:	14003fcc 	andi	r16,r2,255
     d90:	d0e7bf17 	ldw	r3,-24836(gp)
     d94:	00800284 	movi	r2,10
     d98:	1885283a 	div	r2,r3,r2
     d9c:	00c00284 	movi	r3,10
     da0:	10c7283a 	div	r3,r2,r3
     da4:	18c002a4 	muli	r3,r3,10
     da8:	10c5c83a 	sub	r2,r2,r3
     dac:	1009883a 	mov	r4,r2
     db0:	00002840 	call	284 <display_hex>
     db4:	1004923a 	slli	r2,r2,8
     db8:	10bfffcc 	andi	r2,r2,65535
     dbc:	80a0b03a 	or	r16,r16,r2
     dc0:	d0e7bf17 	ldw	r3,-24836(gp)
     dc4:	00801904 	movi	r2,100
     dc8:	1885283a 	div	r2,r3,r2
     dcc:	1009883a 	mov	r4,r2
     dd0:	00002840 	call	284 <display_hex>
     dd4:	1004943a 	slli	r2,r2,16
     dd8:	10803fec 	andhi	r2,r2,255
     ddc:	8088b03a 	or	r4,r16,r2
     de0:	00bfc834 	movhi	r2,65312
     de4:	10800804 	addi	r2,r2,32
     de8:	00ffc834 	movhi	r3,65312
     dec:	18c00804 	addi	r3,r3,32
     df0:	18c00017 	ldw	r3,0(r3)
     df4:	1906b03a 	or	r3,r3,r4
     df8:	10c00015 	stw	r3,0(r2)
							HEX7_HEX4_pointer = display_hex(count%10) | (display_hex(count/10) << 8)| (display_hex(point%10)<< 16 )| (display_hex(point/10) << 24);
     dfc:	043fc834 	movhi	r16,65312
     e00:	84000c04 	addi	r16,r16,48
     e04:	d0a00017 	ldw	r2,-32768(gp)
     e08:	00c00284 	movi	r3,10
     e0c:	10c7283a 	div	r3,r2,r3
     e10:	18c002a4 	muli	r3,r3,10
     e14:	10c5c83a 	sub	r2,r2,r3
     e18:	1009883a 	mov	r4,r2
     e1c:	00002840 	call	284 <display_hex>
     e20:	1023883a 	mov	r17,r2
     e24:	d0e00017 	ldw	r3,-32768(gp)
     e28:	00800284 	movi	r2,10
     e2c:	1885283a 	div	r2,r3,r2
     e30:	1009883a 	mov	r4,r2
     e34:	00002840 	call	284 <display_hex>
     e38:	1004923a 	slli	r2,r2,8
     e3c:	88a2b03a 	or	r17,r17,r2
     e40:	d0a7bb17 	ldw	r2,-24852(gp)
     e44:	00c00284 	movi	r3,10
     e48:	10c7283a 	div	r3,r2,r3
     e4c:	18c002a4 	muli	r3,r3,10
     e50:	10c5c83a 	sub	r2,r2,r3
     e54:	1009883a 	mov	r4,r2
     e58:	00002840 	call	284 <display_hex>
     e5c:	1004943a 	slli	r2,r2,16
     e60:	88a2b03a 	or	r17,r17,r2
     e64:	d0e7bb17 	ldw	r3,-24852(gp)
     e68:	00800284 	movi	r2,10
     e6c:	1885283a 	div	r2,r3,r2
     e70:	1009883a 	mov	r4,r2
     e74:	00002840 	call	284 <display_hex>
     e78:	1004963a 	slli	r2,r2,24
     e7c:	8884b03a 	or	r2,r17,r2
     e80:	80800015 	stw	r2,0(r16)
							OSSemPost(dispSem);
     e84:	d0a7c517 	ldw	r2,-24812(gp)
     e88:	1009883a 	mov	r4,r2
     e8c:	000b1740 	call	b174 <OSSemPost>
							break;
     e90:	0000d306 	br	11e0 <display_task_HEX_task+0x724>
						case PAUSE:
							OSSemPend(dispSem, 0 , &err);
     e94:	d0a7c517 	ldw	r2,-24812(gp)
     e98:	d1a7c204 	addi	r6,gp,-24824
     e9c:	000b883a 	mov	r5,zero
     ea0:	1009883a 	mov	r4,r2
     ea4:	000adfc0 	call	adfc <OSSemPend>
							HEX3_HEX0_pointer &= 0x00;
     ea8:	00bfc834 	movhi	r2,65312
     eac:	10800804 	addi	r2,r2,32
     eb0:	10800017 	ldw	r2,0(r2)
     eb4:	00bfc834 	movhi	r2,65312
     eb8:	10800804 	addi	r2,r2,32
     ebc:	10000015 	stw	zero,0(r2)
							HEX7_HEX4_pointer &= 0x00;
     ec0:	00bfc834 	movhi	r2,65312
     ec4:	10800c04 	addi	r2,r2,48
     ec8:	10800017 	ldw	r2,0(r2)
     ecc:	00bfc834 	movhi	r2,65312
     ed0:	10800c04 	addi	r2,r2,48
     ed4:	10000015 	stw	zero,0(r2)
							HEX7_HEX4_pointer = display_hex(count%10) | (display_hex(count/10) << 8)| (display_hex(point%10)<< 16 )| (display_hex(point/10) << 24);
     ed8:	043fc834 	movhi	r16,65312
     edc:	84000c04 	addi	r16,r16,48
     ee0:	d0a00017 	ldw	r2,-32768(gp)
     ee4:	00c00284 	movi	r3,10
     ee8:	10c7283a 	div	r3,r2,r3
     eec:	18c002a4 	muli	r3,r3,10
     ef0:	10c5c83a 	sub	r2,r2,r3
     ef4:	1009883a 	mov	r4,r2
     ef8:	00002840 	call	284 <display_hex>
     efc:	1023883a 	mov	r17,r2
     f00:	d0e00017 	ldw	r3,-32768(gp)
     f04:	00800284 	movi	r2,10
     f08:	1885283a 	div	r2,r3,r2
     f0c:	1009883a 	mov	r4,r2
     f10:	00002840 	call	284 <display_hex>
     f14:	1004923a 	slli	r2,r2,8
     f18:	88a2b03a 	or	r17,r17,r2
     f1c:	d0a7bb17 	ldw	r2,-24852(gp)
     f20:	00c00284 	movi	r3,10
     f24:	10c7283a 	div	r3,r2,r3
     f28:	18c002a4 	muli	r3,r3,10
     f2c:	10c5c83a 	sub	r2,r2,r3
     f30:	1009883a 	mov	r4,r2
     f34:	00002840 	call	284 <display_hex>
     f38:	1004943a 	slli	r2,r2,16
     f3c:	88a2b03a 	or	r17,r17,r2
     f40:	d0e7bb17 	ldw	r3,-24852(gp)
     f44:	00800284 	movi	r2,10
     f48:	1885283a 	div	r2,r3,r2
     f4c:	1009883a 	mov	r4,r2
     f50:	00002840 	call	284 <display_hex>
     f54:	1004963a 	slli	r2,r2,24
     f58:	8884b03a 	or	r2,r17,r2
     f5c:	80800015 	stw	r2,0(r16)
							OSSemPost(dispSem);
     f60:	d0a7c517 	ldw	r2,-24812(gp)
     f64:	1009883a 	mov	r4,r2
     f68:	000b1740 	call	b174 <OSSemPost>
							break;
     f6c:	00009c06 	br	11e0 <display_task_HEX_task+0x724>
						case FINISH:
							OSSemPend(dispSem, 0 , &err);
     f70:	d0a7c517 	ldw	r2,-24812(gp)
     f74:	d1a7c204 	addi	r6,gp,-24824
     f78:	000b883a 	mov	r5,zero
     f7c:	1009883a 	mov	r4,r2
     f80:	000adfc0 	call	adfc <OSSemPend>
							HEX3_HEX0_pointer &= 0x00;
     f84:	00bfc834 	movhi	r2,65312
     f88:	10800804 	addi	r2,r2,32
     f8c:	10800017 	ldw	r2,0(r2)
     f90:	00bfc834 	movhi	r2,65312
     f94:	10800804 	addi	r2,r2,32
     f98:	10000015 	stw	zero,0(r2)
							HEX7_HEX4_pointer &= 0x00;
     f9c:	00bfc834 	movhi	r2,65312
     fa0:	10800c04 	addi	r2,r2,48
     fa4:	10800017 	ldw	r2,0(r2)
     fa8:	00bfc834 	movhi	r2,65312
     fac:	10800c04 	addi	r2,r2,48
     fb0:	10000015 	stw	zero,0(r2)
							HEX3_HEX0_pointer = (display_hex(elapse_time%10) & (0xFF)) | ((display_hex((elapse_time%60)/10)<< 8)& 0xFF00) | ((display_hex((elapse_time/60)%10)<< 16) & 0xFF0000) | ((display_hex(elapse_time/600)<< 24)& 0xFF000000);
     fb4:	043fc834 	movhi	r16,65312
     fb8:	84000804 	addi	r16,r16,32
     fbc:	d0a7bc17 	ldw	r2,-24848(gp)
     fc0:	00c00284 	movi	r3,10
     fc4:	10c7283a 	div	r3,r2,r3
     fc8:	18c002a4 	muli	r3,r3,10
     fcc:	10c5c83a 	sub	r2,r2,r3
     fd0:	1009883a 	mov	r4,r2
     fd4:	00002840 	call	284 <display_hex>
     fd8:	14403fcc 	andi	r17,r2,255
     fdc:	d0a7bc17 	ldw	r2,-24848(gp)
     fe0:	00c00f04 	movi	r3,60
     fe4:	10c7283a 	div	r3,r2,r3
     fe8:	18c00f24 	muli	r3,r3,60
     fec:	10c7c83a 	sub	r3,r2,r3
     ff0:	00800284 	movi	r2,10
     ff4:	1885283a 	div	r2,r3,r2
     ff8:	1009883a 	mov	r4,r2
     ffc:	00002840 	call	284 <display_hex>
    1000:	1004923a 	slli	r2,r2,8
    1004:	10bfffcc 	andi	r2,r2,65535
    1008:	88a2b03a 	or	r17,r17,r2
    100c:	d0e7bc17 	ldw	r3,-24848(gp)
    1010:	00800f04 	movi	r2,60
    1014:	1885283a 	div	r2,r3,r2
    1018:	00c00284 	movi	r3,10
    101c:	10c7283a 	div	r3,r2,r3
    1020:	18c002a4 	muli	r3,r3,10
    1024:	10c5c83a 	sub	r2,r2,r3
    1028:	1009883a 	mov	r4,r2
    102c:	00002840 	call	284 <display_hex>
    1030:	1004943a 	slli	r2,r2,16
    1034:	10803fec 	andhi	r2,r2,255
    1038:	8884b03a 	or	r2,r17,r2
    103c:	1023883a 	mov	r17,r2
    1040:	d0e7bc17 	ldw	r3,-24848(gp)
    1044:	00809604 	movi	r2,600
    1048:	1885283a 	div	r2,r3,r2
    104c:	1009883a 	mov	r4,r2
    1050:	00002840 	call	284 <display_hex>
    1054:	1004963a 	slli	r2,r2,24
    1058:	8884b03a 	or	r2,r17,r2
    105c:	80800015 	stw	r2,0(r16)
							HEX7_HEX4_pointer = (display_hex(point%10)<< 16 )| (display_hex(point/10) << 24);
    1060:	043fc834 	movhi	r16,65312
    1064:	84000c04 	addi	r16,r16,48
    1068:	d0a7bb17 	ldw	r2,-24852(gp)
    106c:	00c00284 	movi	r3,10
    1070:	10c7283a 	div	r3,r2,r3
    1074:	18c002a4 	muli	r3,r3,10
    1078:	10c5c83a 	sub	r2,r2,r3
    107c:	1009883a 	mov	r4,r2
    1080:	00002840 	call	284 <display_hex>
    1084:	1022943a 	slli	r17,r2,16
    1088:	d0e7bb17 	ldw	r3,-24852(gp)
    108c:	00800284 	movi	r2,10
    1090:	1885283a 	div	r2,r3,r2
    1094:	1009883a 	mov	r4,r2
    1098:	00002840 	call	284 <display_hex>
    109c:	1004963a 	slli	r2,r2,24
    10a0:	8884b03a 	or	r2,r17,r2
    10a4:	80800015 	stw	r2,0(r16)
							OSSemPost(dispSem);
    10a8:	d0a7c517 	ldw	r2,-24812(gp)
    10ac:	1009883a 	mov	r4,r2
    10b0:	000b1740 	call	b174 <OSSemPost>
							break;
    10b4:	00004a06 	br	11e0 <display_task_HEX_task+0x724>
						default:
							OSSemPend(dispSem, 0 , &err);
    10b8:	d0a7c517 	ldw	r2,-24812(gp)
    10bc:	d1a7c204 	addi	r6,gp,-24824
    10c0:	000b883a 	mov	r5,zero
    10c4:	1009883a 	mov	r4,r2
    10c8:	000adfc0 	call	adfc <OSSemPend>
							HEX3_HEX0_pointer &= 0x00;
    10cc:	00bfc834 	movhi	r2,65312
    10d0:	10800804 	addi	r2,r2,32
    10d4:	10800017 	ldw	r2,0(r2)
    10d8:	00bfc834 	movhi	r2,65312
    10dc:	10800804 	addi	r2,r2,32
    10e0:	10000015 	stw	zero,0(r2)
							HEX7_HEX4_pointer &= 0x00;
    10e4:	00bfc834 	movhi	r2,65312
    10e8:	10800c04 	addi	r2,r2,48
    10ec:	10800017 	ldw	r2,0(r2)
    10f0:	00bfc834 	movhi	r2,65312
    10f4:	10800c04 	addi	r2,r2,48
    10f8:	10000015 	stw	zero,0(r2)
							HEX3_HEX0_pointer |= (display_hex(question%10) & 0xFF) | ((display_hex((question/10)%10) << 8) & 0xFF00) | ((display_hex(question/100) << 16) & 0xFF0000);
    10fc:	d0a7bf17 	ldw	r2,-24836(gp)
    1100:	00c00284 	movi	r3,10
    1104:	10c7283a 	div	r3,r2,r3
    1108:	18c002a4 	muli	r3,r3,10
    110c:	10c5c83a 	sub	r2,r2,r3
    1110:	1009883a 	mov	r4,r2
    1114:	00002840 	call	284 <display_hex>
    1118:	14003fcc 	andi	r16,r2,255
    111c:	d0e7bf17 	ldw	r3,-24836(gp)
    1120:	00800284 	movi	r2,10
    1124:	1885283a 	div	r2,r3,r2
    1128:	00c00284 	movi	r3,10
    112c:	10c7283a 	div	r3,r2,r3
    1130:	18c002a4 	muli	r3,r3,10
    1134:	10c5c83a 	sub	r2,r2,r3
    1138:	1009883a 	mov	r4,r2
    113c:	00002840 	call	284 <display_hex>
    1140:	1004923a 	slli	r2,r2,8
    1144:	10bfffcc 	andi	r2,r2,65535
    1148:	80a0b03a 	or	r16,r16,r2
    114c:	d0e7bf17 	ldw	r3,-24836(gp)
    1150:	00801904 	movi	r2,100
    1154:	1885283a 	div	r2,r3,r2
    1158:	1009883a 	mov	r4,r2
    115c:	00002840 	call	284 <display_hex>
    1160:	1004943a 	slli	r2,r2,16
    1164:	10803fec 	andhi	r2,r2,255
    1168:	8088b03a 	or	r4,r16,r2
    116c:	00bfc834 	movhi	r2,65312
    1170:	10800804 	addi	r2,r2,32
    1174:	00ffc834 	movhi	r3,65312
    1178:	18c00804 	addi	r3,r3,32
    117c:	18c00017 	ldw	r3,0(r3)
    1180:	1906b03a 	or	r3,r3,r4
    1184:	10c00015 	stw	r3,0(r2)
							HEX7_HEX4_pointer = display_hex(count%10) | (display_hex(count/10) << 8);
    1188:	043fc834 	movhi	r16,65312
    118c:	84000c04 	addi	r16,r16,48
    1190:	d0a00017 	ldw	r2,-32768(gp)
    1194:	00c00284 	movi	r3,10
    1198:	10c7283a 	div	r3,r2,r3
    119c:	18c002a4 	muli	r3,r3,10
    11a0:	10c5c83a 	sub	r2,r2,r3
    11a4:	1009883a 	mov	r4,r2
    11a8:	00002840 	call	284 <display_hex>
    11ac:	1023883a 	mov	r17,r2
    11b0:	d0e00017 	ldw	r3,-32768(gp)
    11b4:	00800284 	movi	r2,10
    11b8:	1885283a 	div	r2,r3,r2
    11bc:	1009883a 	mov	r4,r2
    11c0:	00002840 	call	284 <display_hex>
    11c4:	1004923a 	slli	r2,r2,8
    11c8:	8884b03a 	or	r2,r17,r2
    11cc:	80800015 	stw	r2,0(r16)
							OSSemPost(dispSem);
    11d0:	d0a7c517 	ldw	r2,-24812(gp)
    11d4:	1009883a 	mov	r4,r2
    11d8:	000b1740 	call	b174 <OSSemPost>
							break;
    11dc:	0001883a 	nop
		}
		OSTaskSuspend(OS_PRIO_SELF); // 12
    11e0:	01003fc4 	movi	r4,255
    11e4:	000c8880 	call	c888 <OSTaskSuspend>
	}
    11e8:	003e3b06 	br	ad8 <__alt_mem_VGA_Subsystem_Char_Buf_Subsystem_Onchip_SRAM+0xf7000ad8>

000011ec <button_press_task>:
}



void button_press_task(void* pdata)
{
    11ec:	defffd04 	addi	sp,sp,-12
    11f0:	dfc00215 	stw	ra,8(sp)
    11f4:	df000115 	stw	fp,4(sp)
    11f8:	df000104 	addi	fp,sp,4
    11fc:	e13fff15 	stw	r4,-4(fp)

	while (1){
//		printf("button press task running\n");
		LEDG_pointer &= 0x00; // clear LEDG
    1200:	00bfc834 	movhi	r2,65312
    1204:	10800404 	addi	r2,r2,16
    1208:	10800017 	ldw	r2,0(r2)
    120c:	00bfc834 	movhi	r2,65312
    1210:	10800404 	addi	r2,r2,16
    1214:	10000015 	stw	zero,0(r2)
		OSSemPend(dispSem, 0 , &err);
    1218:	d0a7c517 	ldw	r2,-24812(gp)
    121c:	d1a7c204 	addi	r6,gp,-24824
    1220:	000b883a 	mov	r5,zero
    1224:	1009883a 	mov	r4,r2
    1228:	000adfc0 	call	adfc <OSSemPend>
		switch(state){
    122c:	d0a00117 	ldw	r2,-32764(gp)
    1230:	10c00060 	cmpeqi	r3,r2,1
    1234:	1800121e 	bne	r3,zero,1280 <button_press_task+0x94>
    1238:	10c000a0 	cmpeqi	r3,r2,2
    123c:	18002a1e 	bne	r3,zero,12e8 <button_press_task+0xfc>
    1240:	10000126 	beq	r2,zero,1248 <button_press_task+0x5c>
					state = IDLE;
				}

				break;
			default:
				break;
    1244:	00004706 	br	1364 <button_press_task+0x178>
		LEDG_pointer &= 0x00; // clear LEDG
		OSSemPend(dispSem, 0 , &err);
		switch(state){
			case IDLE:

				if(KEY_pointer & 0x02){
    1248:	00bfc834 	movhi	r2,65312
    124c:	10801404 	addi	r2,r2,80
    1250:	10800017 	ldw	r2,0(r2)
    1254:	1080008c 	andi	r2,r2,2
    1258:	10003d26 	beq	r2,zero,1350 <button_press_task+0x164>

					LEDG_pointer = KEY_pointer;
    125c:	00bfc834 	movhi	r2,65312
    1260:	10800404 	addi	r2,r2,16
    1264:	00ffc834 	movhi	r3,65312
    1268:	18c01404 	addi	r3,r3,80
    126c:	18c00017 	ldw	r3,0(r3)
    1270:	10c00015 	stw	r3,0(r2)
					state = COUNT;
    1274:	00800044 	movi	r2,1
    1278:	d0a00115 	stw	r2,-32764(gp)
				}
//				OSSemPost(dispSem);
				break;
    127c:	00003406 	br	1350 <button_press_task+0x164>
			case COUNT:

				if(KEY_pointer & 0x02){
    1280:	00bfc834 	movhi	r2,65312
    1284:	10801404 	addi	r2,r2,80
    1288:	10800017 	ldw	r2,0(r2)
    128c:	1080008c 	andi	r2,r2,2
    1290:	10000826 	beq	r2,zero,12b4 <button_press_task+0xc8>

					LEDG_pointer = KEY_pointer;
    1294:	00bfc834 	movhi	r2,65312
    1298:	10800404 	addi	r2,r2,16
    129c:	00ffc834 	movhi	r3,65312
    12a0:	18c01404 	addi	r3,r3,80
    12a4:	18c00017 	ldw	r3,0(r3)
    12a8:	10c00015 	stw	r3,0(r2)
					state = PAUSE;
    12ac:	00800084 	movi	r2,2
    12b0:	d0a00115 	stw	r2,-32764(gp)
				}

				if (KEY_pointer & 0x04){
    12b4:	00bfc834 	movhi	r2,65312
    12b8:	10801404 	addi	r2,r2,80
    12bc:	10800017 	ldw	r2,0(r2)
    12c0:	1080010c 	andi	r2,r2,4
    12c4:	10002426 	beq	r2,zero,1358 <button_press_task+0x16c>

					LEDG_pointer = KEY_pointer;
    12c8:	00bfc834 	movhi	r2,65312
    12cc:	10800404 	addi	r2,r2,16
    12d0:	00ffc834 	movhi	r3,65312
    12d4:	18c01404 	addi	r3,r3,80
    12d8:	18c00017 	ldw	r3,0(r3)
    12dc:	10c00015 	stw	r3,0(r2)
					submit_answer();
    12e0:	00004340 	call	434 <submit_answer>
				}
//				OSSemPost(dispSem);
				break;
    12e4:	00001c06 	br	1358 <button_press_task+0x16c>
			case PAUSE:

				if(KEY_pointer & 0x02){
    12e8:	00bfc834 	movhi	r2,65312
    12ec:	10801404 	addi	r2,r2,80
    12f0:	10800017 	ldw	r2,0(r2)
    12f4:	1080008c 	andi	r2,r2,2
    12f8:	10000826 	beq	r2,zero,131c <button_press_task+0x130>

					LEDG_pointer = KEY_pointer;
    12fc:	00bfc834 	movhi	r2,65312
    1300:	10800404 	addi	r2,r2,16
    1304:	00ffc834 	movhi	r3,65312
    1308:	18c01404 	addi	r3,r3,80
    130c:	18c00017 	ldw	r3,0(r3)
    1310:	10c00015 	stw	r3,0(r2)
					state = COUNT;
    1314:	00800044 	movi	r2,1
    1318:	d0a00115 	stw	r2,-32764(gp)
				}
				if (KEY_pointer & 0x01){
    131c:	00bfc834 	movhi	r2,65312
    1320:	10801404 	addi	r2,r2,80
    1324:	10800017 	ldw	r2,0(r2)
    1328:	1080004c 	andi	r2,r2,1
    132c:	10000c26 	beq	r2,zero,1360 <button_press_task+0x174>
					LEDG_pointer = KEY_pointer;
    1330:	00bfc834 	movhi	r2,65312
    1334:	10800404 	addi	r2,r2,16
    1338:	00ffc834 	movhi	r3,65312
    133c:	18c01404 	addi	r3,r3,80
    1340:	18c00017 	ldw	r3,0(r3)
    1344:	10c00015 	stw	r3,0(r2)
					state = IDLE;
    1348:	d0200115 	stw	zero,-32764(gp)
				}

				break;
    134c:	00000406 	br	1360 <button_press_task+0x174>

					LEDG_pointer = KEY_pointer;
					state = COUNT;
				}
//				OSSemPost(dispSem);
				break;
    1350:	0001883a 	nop
    1354:	00000306 	br	1364 <button_press_task+0x178>

					LEDG_pointer = KEY_pointer;
					submit_answer();
				}
//				OSSemPost(dispSem);
				break;
    1358:	0001883a 	nop
    135c:	00000106 	br	1364 <button_press_task+0x178>
				if (KEY_pointer & 0x01){
					LEDG_pointer = KEY_pointer;
					state = IDLE;
				}

				break;
    1360:	0001883a 	nop
			default:
				break;

			}
		mailBoxErr = OSMboxPostOpt(BPMBox, (void*)&state,OS_POST_OPT_BROADCAST);
    1364:	d0a7c117 	ldw	r2,-24828(gp)
    1368:	01800044 	movi	r6,1
    136c:	d1600104 	addi	r5,gp,-32764
    1370:	1009883a 	mov	r4,r2
    1374:	0008f700 	call	8f70 <OSMboxPostOpt>
    1378:	d0a7c005 	stb	r2,-24832(gp)
		switch (mailBoxErr){
    137c:	d0a7c003 	ldbu	r2,-24832(gp)
    1380:	10803fcc 	andi	r2,r2,255
    1384:	10000326 	beq	r2,zero,1394 <button_press_task+0x1a8>
    1388:	10800520 	cmpeqi	r2,r2,20
    138c:	1000051e 	bne	r2,zero,13a4 <button_press_task+0x1b8>
    1390:	00000806 	br	13b4 <button_press_task+0x1c8>
			case OS_NO_ERR:
				// release key and send message
				OSSemPost(dispSem);
    1394:	d0a7c517 	ldw	r2,-24812(gp)
    1398:	1009883a 	mov	r4,r2
    139c:	000b1740 	call	b174 <OSSemPost>
				break;
    13a0:	00000406 	br	13b4 <button_press_task+0x1c8>
			case OS_MBOX_FULL:
				printf("mail box is full full\n");
    13a4:	01000074 	movhi	r4,1
    13a8:	21043504 	addi	r4,r4,4308
    13ac:	00014800 	call	1480 <puts>
				break;
    13b0:	0001883a 	nop
			}
		OSTaskResume(12); // resume display_task_HEX_task
    13b4:	01000304 	movi	r4,12
    13b8:	000c4f40 	call	c4f4 <OSTaskResume>
	}
    13bc:	003f9006 	br	1200 <__alt_mem_VGA_Subsystem_Char_Buf_Subsystem_Onchip_SRAM+0xf7001200>

000013c0 <_puts_r>:
    13c0:	defff604 	addi	sp,sp,-40
    13c4:	dc000715 	stw	r16,28(sp)
    13c8:	2021883a 	mov	r16,r4
    13cc:	2809883a 	mov	r4,r5
    13d0:	dc400815 	stw	r17,32(sp)
    13d4:	dfc00915 	stw	ra,36(sp)
    13d8:	2823883a 	mov	r17,r5
    13dc:	000150c0 	call	150c <strlen>
    13e0:	10c00044 	addi	r3,r2,1
    13e4:	d8800115 	stw	r2,4(sp)
    13e8:	00800074 	movhi	r2,1
    13ec:	10843b04 	addi	r2,r2,4332
    13f0:	d8800215 	stw	r2,8(sp)
    13f4:	00800044 	movi	r2,1
    13f8:	d8800315 	stw	r2,12(sp)
    13fc:	00800084 	movi	r2,2
    1400:	dc400015 	stw	r17,0(sp)
    1404:	d8c00615 	stw	r3,24(sp)
    1408:	dec00415 	stw	sp,16(sp)
    140c:	d8800515 	stw	r2,20(sp)
    1410:	80000226 	beq	r16,zero,141c <_puts_r+0x5c>
    1414:	80800e17 	ldw	r2,56(r16)
    1418:	10001426 	beq	r2,zero,146c <_puts_r+0xac>
    141c:	81400217 	ldw	r5,8(r16)
    1420:	2880030b 	ldhu	r2,12(r5)
    1424:	10c8000c 	andi	r3,r2,8192
    1428:	1800061e 	bne	r3,zero,1444 <_puts_r+0x84>
    142c:	29001917 	ldw	r4,100(r5)
    1430:	00f7ffc4 	movi	r3,-8193
    1434:	10880014 	ori	r2,r2,8192
    1438:	20c6703a 	and	r3,r4,r3
    143c:	2880030d 	sth	r2,12(r5)
    1440:	28c01915 	stw	r3,100(r5)
    1444:	d9800404 	addi	r6,sp,16
    1448:	8009883a 	mov	r4,r16
    144c:	00019440 	call	1944 <__sfvwrite_r>
    1450:	1000091e 	bne	r2,zero,1478 <_puts_r+0xb8>
    1454:	00800284 	movi	r2,10
    1458:	dfc00917 	ldw	ra,36(sp)
    145c:	dc400817 	ldw	r17,32(sp)
    1460:	dc000717 	ldw	r16,28(sp)
    1464:	dec00a04 	addi	sp,sp,40
    1468:	f800283a 	ret
    146c:	8009883a 	mov	r4,r16
    1470:	00018f40 	call	18f4 <__sinit>
    1474:	003fe906 	br	141c <__alt_mem_VGA_Subsystem_Char_Buf_Subsystem_Onchip_SRAM+0xf700141c>
    1478:	00bfffc4 	movi	r2,-1
    147c:	003ff606 	br	1458 <__alt_mem_VGA_Subsystem_Char_Buf_Subsystem_Onchip_SRAM+0xf7001458>

00001480 <puts>:
    1480:	00800074 	movhi	r2,1
    1484:	108c4404 	addi	r2,r2,12560
    1488:	200b883a 	mov	r5,r4
    148c:	11000017 	ldw	r4,0(r2)
    1490:	00013c01 	jmpi	13c0 <_puts_r>

00001494 <srand>:
    1494:	00800074 	movhi	r2,1
    1498:	108c4404 	addi	r2,r2,12560
    149c:	10800017 	ldw	r2,0(r2)
    14a0:	11002915 	stw	r4,164(r2)
    14a4:	10002a15 	stw	zero,168(r2)
    14a8:	f800283a 	ret

000014ac <rand>:
    14ac:	00800074 	movhi	r2,1
    14b0:	108c4404 	addi	r2,r2,12560
    14b4:	11c00017 	ldw	r7,0(r2)
    14b8:	01532574 	movhi	r5,19605
    14bc:	019614b4 	movhi	r6,22610
    14c0:	38c02917 	ldw	r3,164(r7)
    14c4:	39002a17 	ldw	r4,168(r7)
    14c8:	295fcb44 	addi	r5,r5,32557
    14cc:	31bd0b44 	addi	r6,r6,-3027
    14d0:	1951383a 	mul	r8,r3,r5
    14d4:	2149383a 	mul	r4,r4,r5
    14d8:	198d383a 	mul	r6,r3,r6
    14dc:	194a383a 	mulxuu	r5,r3,r5
    14e0:	40800044 	addi	r2,r8,1
    14e4:	2187883a 	add	r3,r4,r6
    14e8:	1949883a 	add	r4,r3,r5
    14ec:	38802915 	stw	r2,164(r7)
    14f0:	1207803a 	cmpltu	r3,r2,r8
    14f4:	00a00034 	movhi	r2,32768
    14f8:	1907883a 	add	r3,r3,r4
    14fc:	10bfffc4 	addi	r2,r2,-1
    1500:	38c02a15 	stw	r3,168(r7)
    1504:	1884703a 	and	r2,r3,r2
    1508:	f800283a 	ret

0000150c <strlen>:
    150c:	208000cc 	andi	r2,r4,3
    1510:	10002026 	beq	r2,zero,1594 <strlen+0x88>
    1514:	20800007 	ldb	r2,0(r4)
    1518:	10002026 	beq	r2,zero,159c <strlen+0x90>
    151c:	2005883a 	mov	r2,r4
    1520:	00000206 	br	152c <strlen+0x20>
    1524:	10c00007 	ldb	r3,0(r2)
    1528:	18001826 	beq	r3,zero,158c <strlen+0x80>
    152c:	10800044 	addi	r2,r2,1
    1530:	10c000cc 	andi	r3,r2,3
    1534:	183ffb1e 	bne	r3,zero,1524 <__alt_mem_VGA_Subsystem_Char_Buf_Subsystem_Onchip_SRAM+0xf7001524>
    1538:	10c00017 	ldw	r3,0(r2)
    153c:	01ffbff4 	movhi	r7,65279
    1540:	39ffbfc4 	addi	r7,r7,-257
    1544:	00ca303a 	nor	r5,zero,r3
    1548:	01a02074 	movhi	r6,32897
    154c:	19c7883a 	add	r3,r3,r7
    1550:	31a02004 	addi	r6,r6,-32640
    1554:	1946703a 	and	r3,r3,r5
    1558:	1986703a 	and	r3,r3,r6
    155c:	1800091e 	bne	r3,zero,1584 <strlen+0x78>
    1560:	10800104 	addi	r2,r2,4
    1564:	10c00017 	ldw	r3,0(r2)
    1568:	19cb883a 	add	r5,r3,r7
    156c:	00c6303a 	nor	r3,zero,r3
    1570:	28c6703a 	and	r3,r5,r3
    1574:	1986703a 	and	r3,r3,r6
    1578:	183ff926 	beq	r3,zero,1560 <__alt_mem_VGA_Subsystem_Char_Buf_Subsystem_Onchip_SRAM+0xf7001560>
    157c:	00000106 	br	1584 <strlen+0x78>
    1580:	10800044 	addi	r2,r2,1
    1584:	10c00007 	ldb	r3,0(r2)
    1588:	183ffd1e 	bne	r3,zero,1580 <__alt_mem_VGA_Subsystem_Char_Buf_Subsystem_Onchip_SRAM+0xf7001580>
    158c:	1105c83a 	sub	r2,r2,r4
    1590:	f800283a 	ret
    1594:	2005883a 	mov	r2,r4
    1598:	003fe706 	br	1538 <__alt_mem_VGA_Subsystem_Char_Buf_Subsystem_Onchip_SRAM+0xf7001538>
    159c:	0005883a 	mov	r2,zero
    15a0:	f800283a 	ret

000015a4 <__fp_unlock>:
    15a4:	0005883a 	mov	r2,zero
    15a8:	f800283a 	ret

000015ac <_cleanup_r>:
    15ac:	01400034 	movhi	r5,0
    15b0:	294d5004 	addi	r5,r5,13632
    15b4:	0001ec41 	jmpi	1ec4 <_fwalk_reent>

000015b8 <__sinit.part.1>:
    15b8:	defff704 	addi	sp,sp,-36
    15bc:	00c00034 	movhi	r3,0
    15c0:	dfc00815 	stw	ra,32(sp)
    15c4:	ddc00715 	stw	r23,28(sp)
    15c8:	dd800615 	stw	r22,24(sp)
    15cc:	dd400515 	stw	r21,20(sp)
    15d0:	dd000415 	stw	r20,16(sp)
    15d4:	dcc00315 	stw	r19,12(sp)
    15d8:	dc800215 	stw	r18,8(sp)
    15dc:	dc400115 	stw	r17,4(sp)
    15e0:	dc000015 	stw	r16,0(sp)
    15e4:	18c56b04 	addi	r3,r3,5548
    15e8:	24000117 	ldw	r16,4(r4)
    15ec:	20c00f15 	stw	r3,60(r4)
    15f0:	2080bb04 	addi	r2,r4,748
    15f4:	00c000c4 	movi	r3,3
    15f8:	20c0b915 	stw	r3,740(r4)
    15fc:	2080ba15 	stw	r2,744(r4)
    1600:	2000b815 	stw	zero,736(r4)
    1604:	05c00204 	movi	r23,8
    1608:	00800104 	movi	r2,4
    160c:	2025883a 	mov	r18,r4
    1610:	b80d883a 	mov	r6,r23
    1614:	81001704 	addi	r4,r16,92
    1618:	000b883a 	mov	r5,zero
    161c:	80000015 	stw	zero,0(r16)
    1620:	80000115 	stw	zero,4(r16)
    1624:	80000215 	stw	zero,8(r16)
    1628:	8080030d 	sth	r2,12(r16)
    162c:	80001915 	stw	zero,100(r16)
    1630:	8000038d 	sth	zero,14(r16)
    1634:	80000415 	stw	zero,16(r16)
    1638:	80000515 	stw	zero,20(r16)
    163c:	80000615 	stw	zero,24(r16)
    1640:	0002b1c0 	call	2b1c <memset>
    1644:	05800034 	movhi	r22,0
    1648:	94400217 	ldw	r17,8(r18)
    164c:	05400034 	movhi	r21,0
    1650:	05000034 	movhi	r20,0
    1654:	04c00034 	movhi	r19,0
    1658:	b58c7f04 	addi	r22,r22,12796
    165c:	ad4c9604 	addi	r21,r21,12888
    1660:	a50cb504 	addi	r20,r20,13012
    1664:	9ccccc04 	addi	r19,r19,13104
    1668:	85800815 	stw	r22,32(r16)
    166c:	85400915 	stw	r21,36(r16)
    1670:	85000a15 	stw	r20,40(r16)
    1674:	84c00b15 	stw	r19,44(r16)
    1678:	84000715 	stw	r16,28(r16)
    167c:	00800284 	movi	r2,10
    1680:	8880030d 	sth	r2,12(r17)
    1684:	00800044 	movi	r2,1
    1688:	b80d883a 	mov	r6,r23
    168c:	89001704 	addi	r4,r17,92
    1690:	000b883a 	mov	r5,zero
    1694:	88000015 	stw	zero,0(r17)
    1698:	88000115 	stw	zero,4(r17)
    169c:	88000215 	stw	zero,8(r17)
    16a0:	88001915 	stw	zero,100(r17)
    16a4:	8880038d 	sth	r2,14(r17)
    16a8:	88000415 	stw	zero,16(r17)
    16ac:	88000515 	stw	zero,20(r17)
    16b0:	88000615 	stw	zero,24(r17)
    16b4:	0002b1c0 	call	2b1c <memset>
    16b8:	94000317 	ldw	r16,12(r18)
    16bc:	00800484 	movi	r2,18
    16c0:	8c400715 	stw	r17,28(r17)
    16c4:	8d800815 	stw	r22,32(r17)
    16c8:	8d400915 	stw	r21,36(r17)
    16cc:	8d000a15 	stw	r20,40(r17)
    16d0:	8cc00b15 	stw	r19,44(r17)
    16d4:	8080030d 	sth	r2,12(r16)
    16d8:	00800084 	movi	r2,2
    16dc:	80000015 	stw	zero,0(r16)
    16e0:	80000115 	stw	zero,4(r16)
    16e4:	80000215 	stw	zero,8(r16)
    16e8:	80001915 	stw	zero,100(r16)
    16ec:	8080038d 	sth	r2,14(r16)
    16f0:	80000415 	stw	zero,16(r16)
    16f4:	80000515 	stw	zero,20(r16)
    16f8:	80000615 	stw	zero,24(r16)
    16fc:	b80d883a 	mov	r6,r23
    1700:	000b883a 	mov	r5,zero
    1704:	81001704 	addi	r4,r16,92
    1708:	0002b1c0 	call	2b1c <memset>
    170c:	00800044 	movi	r2,1
    1710:	84000715 	stw	r16,28(r16)
    1714:	85800815 	stw	r22,32(r16)
    1718:	85400915 	stw	r21,36(r16)
    171c:	85000a15 	stw	r20,40(r16)
    1720:	84c00b15 	stw	r19,44(r16)
    1724:	90800e15 	stw	r2,56(r18)
    1728:	dfc00817 	ldw	ra,32(sp)
    172c:	ddc00717 	ldw	r23,28(sp)
    1730:	dd800617 	ldw	r22,24(sp)
    1734:	dd400517 	ldw	r21,20(sp)
    1738:	dd000417 	ldw	r20,16(sp)
    173c:	dcc00317 	ldw	r19,12(sp)
    1740:	dc800217 	ldw	r18,8(sp)
    1744:	dc400117 	ldw	r17,4(sp)
    1748:	dc000017 	ldw	r16,0(sp)
    174c:	dec00904 	addi	sp,sp,36
    1750:	f800283a 	ret

00001754 <__fp_lock>:
    1754:	0005883a 	mov	r2,zero
    1758:	f800283a 	ret

0000175c <__sfmoreglue>:
    175c:	defffc04 	addi	sp,sp,-16
    1760:	dc400115 	stw	r17,4(sp)
    1764:	2c7fffc4 	addi	r17,r5,-1
    1768:	8c401a24 	muli	r17,r17,104
    176c:	dc800215 	stw	r18,8(sp)
    1770:	2825883a 	mov	r18,r5
    1774:	89401d04 	addi	r5,r17,116
    1778:	dc000015 	stw	r16,0(sp)
    177c:	dfc00315 	stw	ra,12(sp)
    1780:	0001f880 	call	1f88 <_malloc_r>
    1784:	1021883a 	mov	r16,r2
    1788:	10000726 	beq	r2,zero,17a8 <__sfmoreglue+0x4c>
    178c:	11000304 	addi	r4,r2,12
    1790:	10000015 	stw	zero,0(r2)
    1794:	14800115 	stw	r18,4(r2)
    1798:	11000215 	stw	r4,8(r2)
    179c:	89801a04 	addi	r6,r17,104
    17a0:	000b883a 	mov	r5,zero
    17a4:	0002b1c0 	call	2b1c <memset>
    17a8:	8005883a 	mov	r2,r16
    17ac:	dfc00317 	ldw	ra,12(sp)
    17b0:	dc800217 	ldw	r18,8(sp)
    17b4:	dc400117 	ldw	r17,4(sp)
    17b8:	dc000017 	ldw	r16,0(sp)
    17bc:	dec00404 	addi	sp,sp,16
    17c0:	f800283a 	ret

000017c4 <__sfp>:
    17c4:	defffb04 	addi	sp,sp,-20
    17c8:	dc000015 	stw	r16,0(sp)
    17cc:	04000074 	movhi	r16,1
    17d0:	840c4304 	addi	r16,r16,12556
    17d4:	dcc00315 	stw	r19,12(sp)
    17d8:	2027883a 	mov	r19,r4
    17dc:	81000017 	ldw	r4,0(r16)
    17e0:	dfc00415 	stw	ra,16(sp)
    17e4:	dc800215 	stw	r18,8(sp)
    17e8:	20800e17 	ldw	r2,56(r4)
    17ec:	dc400115 	stw	r17,4(sp)
    17f0:	1000021e 	bne	r2,zero,17fc <__sfp+0x38>
    17f4:	00015b80 	call	15b8 <__sinit.part.1>
    17f8:	81000017 	ldw	r4,0(r16)
    17fc:	2480b804 	addi	r18,r4,736
    1800:	047fffc4 	movi	r17,-1
    1804:	91000117 	ldw	r4,4(r18)
    1808:	94000217 	ldw	r16,8(r18)
    180c:	213fffc4 	addi	r4,r4,-1
    1810:	20000a16 	blt	r4,zero,183c <__sfp+0x78>
    1814:	8080030f 	ldh	r2,12(r16)
    1818:	10000c26 	beq	r2,zero,184c <__sfp+0x88>
    181c:	80c01d04 	addi	r3,r16,116
    1820:	00000206 	br	182c <__sfp+0x68>
    1824:	18bfe60f 	ldh	r2,-104(r3)
    1828:	10000826 	beq	r2,zero,184c <__sfp+0x88>
    182c:	213fffc4 	addi	r4,r4,-1
    1830:	1c3ffd04 	addi	r16,r3,-12
    1834:	18c01a04 	addi	r3,r3,104
    1838:	247ffa1e 	bne	r4,r17,1824 <__alt_mem_VGA_Subsystem_Char_Buf_Subsystem_Onchip_SRAM+0xf7001824>
    183c:	90800017 	ldw	r2,0(r18)
    1840:	10001d26 	beq	r2,zero,18b8 <__sfp+0xf4>
    1844:	1025883a 	mov	r18,r2
    1848:	003fee06 	br	1804 <__alt_mem_VGA_Subsystem_Char_Buf_Subsystem_Onchip_SRAM+0xf7001804>
    184c:	00bfffc4 	movi	r2,-1
    1850:	8080038d 	sth	r2,14(r16)
    1854:	00800044 	movi	r2,1
    1858:	8080030d 	sth	r2,12(r16)
    185c:	80001915 	stw	zero,100(r16)
    1860:	80000015 	stw	zero,0(r16)
    1864:	80000215 	stw	zero,8(r16)
    1868:	80000115 	stw	zero,4(r16)
    186c:	80000415 	stw	zero,16(r16)
    1870:	80000515 	stw	zero,20(r16)
    1874:	80000615 	stw	zero,24(r16)
    1878:	01800204 	movi	r6,8
    187c:	000b883a 	mov	r5,zero
    1880:	81001704 	addi	r4,r16,92
    1884:	0002b1c0 	call	2b1c <memset>
    1888:	8005883a 	mov	r2,r16
    188c:	80000c15 	stw	zero,48(r16)
    1890:	80000d15 	stw	zero,52(r16)
    1894:	80001115 	stw	zero,68(r16)
    1898:	80001215 	stw	zero,72(r16)
    189c:	dfc00417 	ldw	ra,16(sp)
    18a0:	dcc00317 	ldw	r19,12(sp)
    18a4:	dc800217 	ldw	r18,8(sp)
    18a8:	dc400117 	ldw	r17,4(sp)
    18ac:	dc000017 	ldw	r16,0(sp)
    18b0:	dec00504 	addi	sp,sp,20
    18b4:	f800283a 	ret
    18b8:	01400104 	movi	r5,4
    18bc:	9809883a 	mov	r4,r19
    18c0:	000175c0 	call	175c <__sfmoreglue>
    18c4:	90800015 	stw	r2,0(r18)
    18c8:	103fde1e 	bne	r2,zero,1844 <__alt_mem_VGA_Subsystem_Char_Buf_Subsystem_Onchip_SRAM+0xf7001844>
    18cc:	00800304 	movi	r2,12
    18d0:	98800015 	stw	r2,0(r19)
    18d4:	0005883a 	mov	r2,zero
    18d8:	003ff006 	br	189c <__alt_mem_VGA_Subsystem_Char_Buf_Subsystem_Onchip_SRAM+0xf700189c>

000018dc <_cleanup>:
    18dc:	00800074 	movhi	r2,1
    18e0:	108c4304 	addi	r2,r2,12556
    18e4:	11000017 	ldw	r4,0(r2)
    18e8:	01400034 	movhi	r5,0
    18ec:	294d5004 	addi	r5,r5,13632
    18f0:	0001ec41 	jmpi	1ec4 <_fwalk_reent>

000018f4 <__sinit>:
    18f4:	20800e17 	ldw	r2,56(r4)
    18f8:	10000126 	beq	r2,zero,1900 <__sinit+0xc>
    18fc:	f800283a 	ret
    1900:	00015b81 	jmpi	15b8 <__sinit.part.1>

00001904 <__sfp_lock_acquire>:
    1904:	f800283a 	ret

00001908 <__sfp_lock_release>:
    1908:	f800283a 	ret

0000190c <__sinit_lock_acquire>:
    190c:	f800283a 	ret

00001910 <__sinit_lock_release>:
    1910:	f800283a 	ret

00001914 <__fp_lock_all>:
    1914:	00800074 	movhi	r2,1
    1918:	108c4404 	addi	r2,r2,12560
    191c:	11000017 	ldw	r4,0(r2)
    1920:	01400034 	movhi	r5,0
    1924:	2945d504 	addi	r5,r5,5972
    1928:	0001e001 	jmpi	1e00 <_fwalk>

0000192c <__fp_unlock_all>:
    192c:	00800074 	movhi	r2,1
    1930:	108c4404 	addi	r2,r2,12560
    1934:	11000017 	ldw	r4,0(r2)
    1938:	01400034 	movhi	r5,0
    193c:	29456904 	addi	r5,r5,5540
    1940:	0001e001 	jmpi	1e00 <_fwalk>

00001944 <__sfvwrite_r>:
    1944:	30800217 	ldw	r2,8(r6)
    1948:	10006726 	beq	r2,zero,1ae8 <__sfvwrite_r+0x1a4>
    194c:	28c0030b 	ldhu	r3,12(r5)
    1950:	defff404 	addi	sp,sp,-48
    1954:	dd400715 	stw	r21,28(sp)
    1958:	dd000615 	stw	r20,24(sp)
    195c:	dc000215 	stw	r16,8(sp)
    1960:	dfc00b15 	stw	ra,44(sp)
    1964:	df000a15 	stw	fp,40(sp)
    1968:	ddc00915 	stw	r23,36(sp)
    196c:	dd800815 	stw	r22,32(sp)
    1970:	dcc00515 	stw	r19,20(sp)
    1974:	dc800415 	stw	r18,16(sp)
    1978:	dc400315 	stw	r17,12(sp)
    197c:	1880020c 	andi	r2,r3,8
    1980:	2821883a 	mov	r16,r5
    1984:	202b883a 	mov	r21,r4
    1988:	3029883a 	mov	r20,r6
    198c:	10002726 	beq	r2,zero,1a2c <__sfvwrite_r+0xe8>
    1990:	28800417 	ldw	r2,16(r5)
    1994:	10002526 	beq	r2,zero,1a2c <__sfvwrite_r+0xe8>
    1998:	1880008c 	andi	r2,r3,2
    199c:	a4400017 	ldw	r17,0(r20)
    19a0:	10002a26 	beq	r2,zero,1a4c <__sfvwrite_r+0x108>
    19a4:	05a00034 	movhi	r22,32768
    19a8:	0027883a 	mov	r19,zero
    19ac:	0025883a 	mov	r18,zero
    19b0:	b5bf0004 	addi	r22,r22,-1024
    19b4:	980d883a 	mov	r6,r19
    19b8:	a809883a 	mov	r4,r21
    19bc:	90004626 	beq	r18,zero,1ad8 <__sfvwrite_r+0x194>
    19c0:	900f883a 	mov	r7,r18
    19c4:	b480022e 	bgeu	r22,r18,19d0 <__sfvwrite_r+0x8c>
    19c8:	01e00034 	movhi	r7,32768
    19cc:	39ff0004 	addi	r7,r7,-1024
    19d0:	80800917 	ldw	r2,36(r16)
    19d4:	81400717 	ldw	r5,28(r16)
    19d8:	103ee83a 	callr	r2
    19dc:	0080570e 	bge	zero,r2,1b3c <__sfvwrite_r+0x1f8>
    19e0:	a0c00217 	ldw	r3,8(r20)
    19e4:	98a7883a 	add	r19,r19,r2
    19e8:	90a5c83a 	sub	r18,r18,r2
    19ec:	1885c83a 	sub	r2,r3,r2
    19f0:	a0800215 	stw	r2,8(r20)
    19f4:	103fef1e 	bne	r2,zero,19b4 <__alt_mem_VGA_Subsystem_Char_Buf_Subsystem_Onchip_SRAM+0xf70019b4>
    19f8:	0005883a 	mov	r2,zero
    19fc:	dfc00b17 	ldw	ra,44(sp)
    1a00:	df000a17 	ldw	fp,40(sp)
    1a04:	ddc00917 	ldw	r23,36(sp)
    1a08:	dd800817 	ldw	r22,32(sp)
    1a0c:	dd400717 	ldw	r21,28(sp)
    1a10:	dd000617 	ldw	r20,24(sp)
    1a14:	dcc00517 	ldw	r19,20(sp)
    1a18:	dc800417 	ldw	r18,16(sp)
    1a1c:	dc400317 	ldw	r17,12(sp)
    1a20:	dc000217 	ldw	r16,8(sp)
    1a24:	dec00c04 	addi	sp,sp,48
    1a28:	f800283a 	ret
    1a2c:	800b883a 	mov	r5,r16
    1a30:	a809883a 	mov	r4,r21
    1a34:	00033980 	call	3398 <__swsetup_r>
    1a38:	1000eb1e 	bne	r2,zero,1de8 <__sfvwrite_r+0x4a4>
    1a3c:	80c0030b 	ldhu	r3,12(r16)
    1a40:	a4400017 	ldw	r17,0(r20)
    1a44:	1880008c 	andi	r2,r3,2
    1a48:	103fd61e 	bne	r2,zero,19a4 <__alt_mem_VGA_Subsystem_Char_Buf_Subsystem_Onchip_SRAM+0xf70019a4>
    1a4c:	1880004c 	andi	r2,r3,1
    1a50:	10003f1e 	bne	r2,zero,1b50 <__sfvwrite_r+0x20c>
    1a54:	0039883a 	mov	fp,zero
    1a58:	0025883a 	mov	r18,zero
    1a5c:	90001a26 	beq	r18,zero,1ac8 <__sfvwrite_r+0x184>
    1a60:	1880800c 	andi	r2,r3,512
    1a64:	84c00217 	ldw	r19,8(r16)
    1a68:	10002126 	beq	r2,zero,1af0 <__sfvwrite_r+0x1ac>
    1a6c:	982f883a 	mov	r23,r19
    1a70:	94c09336 	bltu	r18,r19,1cc0 <__sfvwrite_r+0x37c>
    1a74:	1881200c 	andi	r2,r3,1152
    1a78:	10009e1e 	bne	r2,zero,1cf4 <__sfvwrite_r+0x3b0>
    1a7c:	81000017 	ldw	r4,0(r16)
    1a80:	b80d883a 	mov	r6,r23
    1a84:	e00b883a 	mov	r5,fp
    1a88:	00029c00 	call	29c0 <memmove>
    1a8c:	80c00217 	ldw	r3,8(r16)
    1a90:	81000017 	ldw	r4,0(r16)
    1a94:	9005883a 	mov	r2,r18
    1a98:	1ce7c83a 	sub	r19,r3,r19
    1a9c:	25cf883a 	add	r7,r4,r23
    1aa0:	84c00215 	stw	r19,8(r16)
    1aa4:	81c00015 	stw	r7,0(r16)
    1aa8:	a0c00217 	ldw	r3,8(r20)
    1aac:	e0b9883a 	add	fp,fp,r2
    1ab0:	90a5c83a 	sub	r18,r18,r2
    1ab4:	18a7c83a 	sub	r19,r3,r2
    1ab8:	a4c00215 	stw	r19,8(r20)
    1abc:	983fce26 	beq	r19,zero,19f8 <__alt_mem_VGA_Subsystem_Char_Buf_Subsystem_Onchip_SRAM+0xf70019f8>
    1ac0:	80c0030b 	ldhu	r3,12(r16)
    1ac4:	903fe61e 	bne	r18,zero,1a60 <__alt_mem_VGA_Subsystem_Char_Buf_Subsystem_Onchip_SRAM+0xf7001a60>
    1ac8:	8f000017 	ldw	fp,0(r17)
    1acc:	8c800117 	ldw	r18,4(r17)
    1ad0:	8c400204 	addi	r17,r17,8
    1ad4:	003fe106 	br	1a5c <__alt_mem_VGA_Subsystem_Char_Buf_Subsystem_Onchip_SRAM+0xf7001a5c>
    1ad8:	8cc00017 	ldw	r19,0(r17)
    1adc:	8c800117 	ldw	r18,4(r17)
    1ae0:	8c400204 	addi	r17,r17,8
    1ae4:	003fb306 	br	19b4 <__alt_mem_VGA_Subsystem_Char_Buf_Subsystem_Onchip_SRAM+0xf70019b4>
    1ae8:	0005883a 	mov	r2,zero
    1aec:	f800283a 	ret
    1af0:	81000017 	ldw	r4,0(r16)
    1af4:	80800417 	ldw	r2,16(r16)
    1af8:	11005736 	bltu	r2,r4,1c58 <__sfvwrite_r+0x314>
    1afc:	85c00517 	ldw	r23,20(r16)
    1b00:	95c05536 	bltu	r18,r23,1c58 <__sfvwrite_r+0x314>
    1b04:	00a00034 	movhi	r2,32768
    1b08:	10bfffc4 	addi	r2,r2,-1
    1b0c:	9009883a 	mov	r4,r18
    1b10:	1480012e 	bgeu	r2,r18,1b18 <__sfvwrite_r+0x1d4>
    1b14:	1009883a 	mov	r4,r2
    1b18:	b80b883a 	mov	r5,r23
    1b1c:	000404c0 	call	404c <__divsi3>
    1b20:	15cf383a 	mul	r7,r2,r23
    1b24:	81400717 	ldw	r5,28(r16)
    1b28:	80800917 	ldw	r2,36(r16)
    1b2c:	e00d883a 	mov	r6,fp
    1b30:	a809883a 	mov	r4,r21
    1b34:	103ee83a 	callr	r2
    1b38:	00bfdb16 	blt	zero,r2,1aa8 <__alt_mem_VGA_Subsystem_Char_Buf_Subsystem_Onchip_SRAM+0xf7001aa8>
    1b3c:	8080030b 	ldhu	r2,12(r16)
    1b40:	10801014 	ori	r2,r2,64
    1b44:	8080030d 	sth	r2,12(r16)
    1b48:	00bfffc4 	movi	r2,-1
    1b4c:	003fab06 	br	19fc <__alt_mem_VGA_Subsystem_Char_Buf_Subsystem_Onchip_SRAM+0xf70019fc>
    1b50:	0027883a 	mov	r19,zero
    1b54:	0011883a 	mov	r8,zero
    1b58:	0039883a 	mov	fp,zero
    1b5c:	0025883a 	mov	r18,zero
    1b60:	90001f26 	beq	r18,zero,1be0 <__sfvwrite_r+0x29c>
    1b64:	40005a26 	beq	r8,zero,1cd0 <__sfvwrite_r+0x38c>
    1b68:	982d883a 	mov	r22,r19
    1b6c:	94c0012e 	bgeu	r18,r19,1b74 <__sfvwrite_r+0x230>
    1b70:	902d883a 	mov	r22,r18
    1b74:	81000017 	ldw	r4,0(r16)
    1b78:	80800417 	ldw	r2,16(r16)
    1b7c:	b02f883a 	mov	r23,r22
    1b80:	81c00517 	ldw	r7,20(r16)
    1b84:	1100032e 	bgeu	r2,r4,1b94 <__sfvwrite_r+0x250>
    1b88:	80c00217 	ldw	r3,8(r16)
    1b8c:	38c7883a 	add	r3,r7,r3
    1b90:	1d801816 	blt	r3,r22,1bf4 <__sfvwrite_r+0x2b0>
    1b94:	b1c03e16 	blt	r22,r7,1c90 <__sfvwrite_r+0x34c>
    1b98:	80800917 	ldw	r2,36(r16)
    1b9c:	81400717 	ldw	r5,28(r16)
    1ba0:	e00d883a 	mov	r6,fp
    1ba4:	da000115 	stw	r8,4(sp)
    1ba8:	a809883a 	mov	r4,r21
    1bac:	103ee83a 	callr	r2
    1bb0:	102f883a 	mov	r23,r2
    1bb4:	da000117 	ldw	r8,4(sp)
    1bb8:	00bfe00e 	bge	zero,r2,1b3c <__alt_mem_VGA_Subsystem_Char_Buf_Subsystem_Onchip_SRAM+0xf7001b3c>
    1bbc:	9de7c83a 	sub	r19,r19,r23
    1bc0:	98001f26 	beq	r19,zero,1c40 <__sfvwrite_r+0x2fc>
    1bc4:	a0800217 	ldw	r2,8(r20)
    1bc8:	e5f9883a 	add	fp,fp,r23
    1bcc:	95e5c83a 	sub	r18,r18,r23
    1bd0:	15efc83a 	sub	r23,r2,r23
    1bd4:	a5c00215 	stw	r23,8(r20)
    1bd8:	b83f8726 	beq	r23,zero,19f8 <__alt_mem_VGA_Subsystem_Char_Buf_Subsystem_Onchip_SRAM+0xf70019f8>
    1bdc:	903fe11e 	bne	r18,zero,1b64 <__alt_mem_VGA_Subsystem_Char_Buf_Subsystem_Onchip_SRAM+0xf7001b64>
    1be0:	8f000017 	ldw	fp,0(r17)
    1be4:	8c800117 	ldw	r18,4(r17)
    1be8:	0011883a 	mov	r8,zero
    1bec:	8c400204 	addi	r17,r17,8
    1bf0:	003fdb06 	br	1b60 <__alt_mem_VGA_Subsystem_Char_Buf_Subsystem_Onchip_SRAM+0xf7001b60>
    1bf4:	180d883a 	mov	r6,r3
    1bf8:	e00b883a 	mov	r5,fp
    1bfc:	da000115 	stw	r8,4(sp)
    1c00:	d8c00015 	stw	r3,0(sp)
    1c04:	00029c00 	call	29c0 <memmove>
    1c08:	d8c00017 	ldw	r3,0(sp)
    1c0c:	80800017 	ldw	r2,0(r16)
    1c10:	800b883a 	mov	r5,r16
    1c14:	a809883a 	mov	r4,r21
    1c18:	10c5883a 	add	r2,r2,r3
    1c1c:	80800015 	stw	r2,0(r16)
    1c20:	d8c00015 	stw	r3,0(sp)
    1c24:	00038600 	call	3860 <_fflush_r>
    1c28:	d8c00017 	ldw	r3,0(sp)
    1c2c:	da000117 	ldw	r8,4(sp)
    1c30:	103fc21e 	bne	r2,zero,1b3c <__alt_mem_VGA_Subsystem_Char_Buf_Subsystem_Onchip_SRAM+0xf7001b3c>
    1c34:	182f883a 	mov	r23,r3
    1c38:	9de7c83a 	sub	r19,r19,r23
    1c3c:	983fe11e 	bne	r19,zero,1bc4 <__alt_mem_VGA_Subsystem_Char_Buf_Subsystem_Onchip_SRAM+0xf7001bc4>
    1c40:	800b883a 	mov	r5,r16
    1c44:	a809883a 	mov	r4,r21
    1c48:	00038600 	call	3860 <_fflush_r>
    1c4c:	103fbb1e 	bne	r2,zero,1b3c <__alt_mem_VGA_Subsystem_Char_Buf_Subsystem_Onchip_SRAM+0xf7001b3c>
    1c50:	0011883a 	mov	r8,zero
    1c54:	003fdb06 	br	1bc4 <__alt_mem_VGA_Subsystem_Char_Buf_Subsystem_Onchip_SRAM+0xf7001bc4>
    1c58:	94c0012e 	bgeu	r18,r19,1c60 <__sfvwrite_r+0x31c>
    1c5c:	9027883a 	mov	r19,r18
    1c60:	980d883a 	mov	r6,r19
    1c64:	e00b883a 	mov	r5,fp
    1c68:	00029c00 	call	29c0 <memmove>
    1c6c:	80800217 	ldw	r2,8(r16)
    1c70:	80c00017 	ldw	r3,0(r16)
    1c74:	14c5c83a 	sub	r2,r2,r19
    1c78:	1cc7883a 	add	r3,r3,r19
    1c7c:	80800215 	stw	r2,8(r16)
    1c80:	80c00015 	stw	r3,0(r16)
    1c84:	10004326 	beq	r2,zero,1d94 <__sfvwrite_r+0x450>
    1c88:	9805883a 	mov	r2,r19
    1c8c:	003f8606 	br	1aa8 <__alt_mem_VGA_Subsystem_Char_Buf_Subsystem_Onchip_SRAM+0xf7001aa8>
    1c90:	b00d883a 	mov	r6,r22
    1c94:	e00b883a 	mov	r5,fp
    1c98:	da000115 	stw	r8,4(sp)
    1c9c:	00029c00 	call	29c0 <memmove>
    1ca0:	80800217 	ldw	r2,8(r16)
    1ca4:	80c00017 	ldw	r3,0(r16)
    1ca8:	da000117 	ldw	r8,4(sp)
    1cac:	1585c83a 	sub	r2,r2,r22
    1cb0:	1dad883a 	add	r22,r3,r22
    1cb4:	80800215 	stw	r2,8(r16)
    1cb8:	85800015 	stw	r22,0(r16)
    1cbc:	003fbf06 	br	1bbc <__alt_mem_VGA_Subsystem_Char_Buf_Subsystem_Onchip_SRAM+0xf7001bbc>
    1cc0:	81000017 	ldw	r4,0(r16)
    1cc4:	9027883a 	mov	r19,r18
    1cc8:	902f883a 	mov	r23,r18
    1ccc:	003f6c06 	br	1a80 <__alt_mem_VGA_Subsystem_Char_Buf_Subsystem_Onchip_SRAM+0xf7001a80>
    1cd0:	900d883a 	mov	r6,r18
    1cd4:	01400284 	movi	r5,10
    1cd8:	e009883a 	mov	r4,fp
    1cdc:	00027940 	call	2794 <memchr>
    1ce0:	10003e26 	beq	r2,zero,1ddc <__sfvwrite_r+0x498>
    1ce4:	10800044 	addi	r2,r2,1
    1ce8:	1727c83a 	sub	r19,r2,fp
    1cec:	02000044 	movi	r8,1
    1cf0:	003f9d06 	br	1b68 <__alt_mem_VGA_Subsystem_Char_Buf_Subsystem_Onchip_SRAM+0xf7001b68>
    1cf4:	80800517 	ldw	r2,20(r16)
    1cf8:	81400417 	ldw	r5,16(r16)
    1cfc:	81c00017 	ldw	r7,0(r16)
    1d00:	10a7883a 	add	r19,r2,r2
    1d04:	9885883a 	add	r2,r19,r2
    1d08:	1026d7fa 	srli	r19,r2,31
    1d0c:	396dc83a 	sub	r22,r7,r5
    1d10:	b1000044 	addi	r4,r22,1
    1d14:	9885883a 	add	r2,r19,r2
    1d18:	1027d07a 	srai	r19,r2,1
    1d1c:	2485883a 	add	r2,r4,r18
    1d20:	980d883a 	mov	r6,r19
    1d24:	9880022e 	bgeu	r19,r2,1d30 <__sfvwrite_r+0x3ec>
    1d28:	1027883a 	mov	r19,r2
    1d2c:	100d883a 	mov	r6,r2
    1d30:	18c1000c 	andi	r3,r3,1024
    1d34:	18001c26 	beq	r3,zero,1da8 <__sfvwrite_r+0x464>
    1d38:	300b883a 	mov	r5,r6
    1d3c:	a809883a 	mov	r4,r21
    1d40:	0001f880 	call	1f88 <_malloc_r>
    1d44:	102f883a 	mov	r23,r2
    1d48:	10002926 	beq	r2,zero,1df0 <__sfvwrite_r+0x4ac>
    1d4c:	81400417 	ldw	r5,16(r16)
    1d50:	b00d883a 	mov	r6,r22
    1d54:	1009883a 	mov	r4,r2
    1d58:	00028780 	call	2878 <memcpy>
    1d5c:	8080030b 	ldhu	r2,12(r16)
    1d60:	00fedfc4 	movi	r3,-1153
    1d64:	10c4703a 	and	r2,r2,r3
    1d68:	10802014 	ori	r2,r2,128
    1d6c:	8080030d 	sth	r2,12(r16)
    1d70:	bd89883a 	add	r4,r23,r22
    1d74:	9d8fc83a 	sub	r7,r19,r22
    1d78:	85c00415 	stw	r23,16(r16)
    1d7c:	84c00515 	stw	r19,20(r16)
    1d80:	81000015 	stw	r4,0(r16)
    1d84:	9027883a 	mov	r19,r18
    1d88:	81c00215 	stw	r7,8(r16)
    1d8c:	902f883a 	mov	r23,r18
    1d90:	003f3b06 	br	1a80 <__alt_mem_VGA_Subsystem_Char_Buf_Subsystem_Onchip_SRAM+0xf7001a80>
    1d94:	800b883a 	mov	r5,r16
    1d98:	a809883a 	mov	r4,r21
    1d9c:	00038600 	call	3860 <_fflush_r>
    1da0:	103fb926 	beq	r2,zero,1c88 <__alt_mem_VGA_Subsystem_Char_Buf_Subsystem_Onchip_SRAM+0xf7001c88>
    1da4:	003f6506 	br	1b3c <__alt_mem_VGA_Subsystem_Char_Buf_Subsystem_Onchip_SRAM+0xf7001b3c>
    1da8:	a809883a 	mov	r4,r21
    1dac:	0002c440 	call	2c44 <_realloc_r>
    1db0:	102f883a 	mov	r23,r2
    1db4:	103fee1e 	bne	r2,zero,1d70 <__alt_mem_VGA_Subsystem_Char_Buf_Subsystem_Onchip_SRAM+0xf7001d70>
    1db8:	81400417 	ldw	r5,16(r16)
    1dbc:	a809883a 	mov	r4,r21
    1dc0:	0003a100 	call	3a10 <_free_r>
    1dc4:	8080030b 	ldhu	r2,12(r16)
    1dc8:	00ffdfc4 	movi	r3,-129
    1dcc:	1884703a 	and	r2,r3,r2
    1dd0:	00c00304 	movi	r3,12
    1dd4:	a8c00015 	stw	r3,0(r21)
    1dd8:	003f5906 	br	1b40 <__alt_mem_VGA_Subsystem_Char_Buf_Subsystem_Onchip_SRAM+0xf7001b40>
    1ddc:	94c00044 	addi	r19,r18,1
    1de0:	02000044 	movi	r8,1
    1de4:	003f6006 	br	1b68 <__alt_mem_VGA_Subsystem_Char_Buf_Subsystem_Onchip_SRAM+0xf7001b68>
    1de8:	00bfffc4 	movi	r2,-1
    1dec:	003f0306 	br	19fc <__alt_mem_VGA_Subsystem_Char_Buf_Subsystem_Onchip_SRAM+0xf70019fc>
    1df0:	00800304 	movi	r2,12
    1df4:	a8800015 	stw	r2,0(r21)
    1df8:	8080030b 	ldhu	r2,12(r16)
    1dfc:	003f5006 	br	1b40 <__alt_mem_VGA_Subsystem_Char_Buf_Subsystem_Onchip_SRAM+0xf7001b40>

00001e00 <_fwalk>:
    1e00:	defff704 	addi	sp,sp,-36
    1e04:	dd000415 	stw	r20,16(sp)
    1e08:	dfc00815 	stw	ra,32(sp)
    1e0c:	ddc00715 	stw	r23,28(sp)
    1e10:	dd800615 	stw	r22,24(sp)
    1e14:	dd400515 	stw	r21,20(sp)
    1e18:	dcc00315 	stw	r19,12(sp)
    1e1c:	dc800215 	stw	r18,8(sp)
    1e20:	dc400115 	stw	r17,4(sp)
    1e24:	dc000015 	stw	r16,0(sp)
    1e28:	2500b804 	addi	r20,r4,736
    1e2c:	a0002326 	beq	r20,zero,1ebc <_fwalk+0xbc>
    1e30:	282b883a 	mov	r21,r5
    1e34:	002f883a 	mov	r23,zero
    1e38:	05800044 	movi	r22,1
    1e3c:	04ffffc4 	movi	r19,-1
    1e40:	a4400117 	ldw	r17,4(r20)
    1e44:	a4800217 	ldw	r18,8(r20)
    1e48:	8c7fffc4 	addi	r17,r17,-1
    1e4c:	88000d16 	blt	r17,zero,1e84 <_fwalk+0x84>
    1e50:	94000304 	addi	r16,r18,12
    1e54:	94800384 	addi	r18,r18,14
    1e58:	8080000b 	ldhu	r2,0(r16)
    1e5c:	8c7fffc4 	addi	r17,r17,-1
    1e60:	813ffd04 	addi	r4,r16,-12
    1e64:	b080042e 	bgeu	r22,r2,1e78 <_fwalk+0x78>
    1e68:	9080000f 	ldh	r2,0(r18)
    1e6c:	14c00226 	beq	r2,r19,1e78 <_fwalk+0x78>
    1e70:	a83ee83a 	callr	r21
    1e74:	b8aeb03a 	or	r23,r23,r2
    1e78:	84001a04 	addi	r16,r16,104
    1e7c:	94801a04 	addi	r18,r18,104
    1e80:	8cfff51e 	bne	r17,r19,1e58 <__alt_mem_VGA_Subsystem_Char_Buf_Subsystem_Onchip_SRAM+0xf7001e58>
    1e84:	a5000017 	ldw	r20,0(r20)
    1e88:	a03fed1e 	bne	r20,zero,1e40 <__alt_mem_VGA_Subsystem_Char_Buf_Subsystem_Onchip_SRAM+0xf7001e40>
    1e8c:	b805883a 	mov	r2,r23
    1e90:	dfc00817 	ldw	ra,32(sp)
    1e94:	ddc00717 	ldw	r23,28(sp)
    1e98:	dd800617 	ldw	r22,24(sp)
    1e9c:	dd400517 	ldw	r21,20(sp)
    1ea0:	dd000417 	ldw	r20,16(sp)
    1ea4:	dcc00317 	ldw	r19,12(sp)
    1ea8:	dc800217 	ldw	r18,8(sp)
    1eac:	dc400117 	ldw	r17,4(sp)
    1eb0:	dc000017 	ldw	r16,0(sp)
    1eb4:	dec00904 	addi	sp,sp,36
    1eb8:	f800283a 	ret
    1ebc:	002f883a 	mov	r23,zero
    1ec0:	003ff206 	br	1e8c <__alt_mem_VGA_Subsystem_Char_Buf_Subsystem_Onchip_SRAM+0xf7001e8c>

00001ec4 <_fwalk_reent>:
    1ec4:	defff704 	addi	sp,sp,-36
    1ec8:	dd000415 	stw	r20,16(sp)
    1ecc:	dfc00815 	stw	ra,32(sp)
    1ed0:	ddc00715 	stw	r23,28(sp)
    1ed4:	dd800615 	stw	r22,24(sp)
    1ed8:	dd400515 	stw	r21,20(sp)
    1edc:	dcc00315 	stw	r19,12(sp)
    1ee0:	dc800215 	stw	r18,8(sp)
    1ee4:	dc400115 	stw	r17,4(sp)
    1ee8:	dc000015 	stw	r16,0(sp)
    1eec:	2500b804 	addi	r20,r4,736
    1ef0:	a0002326 	beq	r20,zero,1f80 <_fwalk_reent+0xbc>
    1ef4:	282b883a 	mov	r21,r5
    1ef8:	2027883a 	mov	r19,r4
    1efc:	002f883a 	mov	r23,zero
    1f00:	05800044 	movi	r22,1
    1f04:	04bfffc4 	movi	r18,-1
    1f08:	a4400117 	ldw	r17,4(r20)
    1f0c:	a4000217 	ldw	r16,8(r20)
    1f10:	8c7fffc4 	addi	r17,r17,-1
    1f14:	88000c16 	blt	r17,zero,1f48 <_fwalk_reent+0x84>
    1f18:	84000304 	addi	r16,r16,12
    1f1c:	8080000b 	ldhu	r2,0(r16)
    1f20:	8c7fffc4 	addi	r17,r17,-1
    1f24:	817ffd04 	addi	r5,r16,-12
    1f28:	b080052e 	bgeu	r22,r2,1f40 <_fwalk_reent+0x7c>
    1f2c:	8080008f 	ldh	r2,2(r16)
    1f30:	9809883a 	mov	r4,r19
    1f34:	14800226 	beq	r2,r18,1f40 <_fwalk_reent+0x7c>
    1f38:	a83ee83a 	callr	r21
    1f3c:	b8aeb03a 	or	r23,r23,r2
    1f40:	84001a04 	addi	r16,r16,104
    1f44:	8cbff51e 	bne	r17,r18,1f1c <__alt_mem_VGA_Subsystem_Char_Buf_Subsystem_Onchip_SRAM+0xf7001f1c>
    1f48:	a5000017 	ldw	r20,0(r20)
    1f4c:	a03fee1e 	bne	r20,zero,1f08 <__alt_mem_VGA_Subsystem_Char_Buf_Subsystem_Onchip_SRAM+0xf7001f08>
    1f50:	b805883a 	mov	r2,r23
    1f54:	dfc00817 	ldw	ra,32(sp)
    1f58:	ddc00717 	ldw	r23,28(sp)
    1f5c:	dd800617 	ldw	r22,24(sp)
    1f60:	dd400517 	ldw	r21,20(sp)
    1f64:	dd000417 	ldw	r20,16(sp)
    1f68:	dcc00317 	ldw	r19,12(sp)
    1f6c:	dc800217 	ldw	r18,8(sp)
    1f70:	dc400117 	ldw	r17,4(sp)
    1f74:	dc000017 	ldw	r16,0(sp)
    1f78:	dec00904 	addi	sp,sp,36
    1f7c:	f800283a 	ret
    1f80:	002f883a 	mov	r23,zero
    1f84:	003ff206 	br	1f50 <__alt_mem_VGA_Subsystem_Char_Buf_Subsystem_Onchip_SRAM+0xf7001f50>

00001f88 <_malloc_r>:
    1f88:	defff504 	addi	sp,sp,-44
    1f8c:	dc800315 	stw	r18,12(sp)
    1f90:	dfc00a15 	stw	ra,40(sp)
    1f94:	df000915 	stw	fp,36(sp)
    1f98:	ddc00815 	stw	r23,32(sp)
    1f9c:	dd800715 	stw	r22,28(sp)
    1fa0:	dd400615 	stw	r21,24(sp)
    1fa4:	dd000515 	stw	r20,20(sp)
    1fa8:	dcc00415 	stw	r19,16(sp)
    1fac:	dc400215 	stw	r17,8(sp)
    1fb0:	dc000115 	stw	r16,4(sp)
    1fb4:	288002c4 	addi	r2,r5,11
    1fb8:	00c00584 	movi	r3,22
    1fbc:	2025883a 	mov	r18,r4
    1fc0:	18807f2e 	bgeu	r3,r2,21c0 <_malloc_r+0x238>
    1fc4:	047ffe04 	movi	r17,-8
    1fc8:	1462703a 	and	r17,r2,r17
    1fcc:	8800a316 	blt	r17,zero,225c <_malloc_r+0x2d4>
    1fd0:	8940a236 	bltu	r17,r5,225c <_malloc_r+0x2d4>
    1fd4:	0004c600 	call	4c60 <__malloc_lock>
    1fd8:	00807dc4 	movi	r2,503
    1fdc:	1441e92e 	bgeu	r2,r17,2784 <_malloc_r+0x7fc>
    1fe0:	8804d27a 	srli	r2,r17,9
    1fe4:	1000a126 	beq	r2,zero,226c <_malloc_r+0x2e4>
    1fe8:	00c00104 	movi	r3,4
    1fec:	18811e36 	bltu	r3,r2,2468 <_malloc_r+0x4e0>
    1ff0:	8804d1ba 	srli	r2,r17,6
    1ff4:	12000e44 	addi	r8,r2,57
    1ff8:	11c00e04 	addi	r7,r2,56
    1ffc:	4209883a 	add	r4,r8,r8
    2000:	04c00074 	movhi	r19,1
    2004:	2109883a 	add	r4,r4,r4
    2008:	9cc5f704 	addi	r19,r19,6108
    200c:	2109883a 	add	r4,r4,r4
    2010:	9909883a 	add	r4,r19,r4
    2014:	24000117 	ldw	r16,4(r4)
    2018:	213ffe04 	addi	r4,r4,-8
    201c:	24009726 	beq	r4,r16,227c <_malloc_r+0x2f4>
    2020:	80800117 	ldw	r2,4(r16)
    2024:	01bfff04 	movi	r6,-4
    2028:	014003c4 	movi	r5,15
    202c:	1184703a 	and	r2,r2,r6
    2030:	1447c83a 	sub	r3,r2,r17
    2034:	28c00716 	blt	r5,r3,2054 <_malloc_r+0xcc>
    2038:	1800920e 	bge	r3,zero,2284 <_malloc_r+0x2fc>
    203c:	84000317 	ldw	r16,12(r16)
    2040:	24008e26 	beq	r4,r16,227c <_malloc_r+0x2f4>
    2044:	80800117 	ldw	r2,4(r16)
    2048:	1184703a 	and	r2,r2,r6
    204c:	1447c83a 	sub	r3,r2,r17
    2050:	28fff90e 	bge	r5,r3,2038 <__alt_mem_VGA_Subsystem_Char_Buf_Subsystem_Onchip_SRAM+0xf7002038>
    2054:	3809883a 	mov	r4,r7
    2058:	01800074 	movhi	r6,1
    205c:	9c000417 	ldw	r16,16(r19)
    2060:	3185f704 	addi	r6,r6,6108
    2064:	32000204 	addi	r8,r6,8
    2068:	82013426 	beq	r16,r8,253c <_malloc_r+0x5b4>
    206c:	80c00117 	ldw	r3,4(r16)
    2070:	00bfff04 	movi	r2,-4
    2074:	188e703a 	and	r7,r3,r2
    2078:	3c45c83a 	sub	r2,r7,r17
    207c:	00c003c4 	movi	r3,15
    2080:	18811f16 	blt	r3,r2,2500 <_malloc_r+0x578>
    2084:	32000515 	stw	r8,20(r6)
    2088:	32000415 	stw	r8,16(r6)
    208c:	10007f0e 	bge	r2,zero,228c <_malloc_r+0x304>
    2090:	00807fc4 	movi	r2,511
    2094:	11c0fd36 	bltu	r2,r7,248c <_malloc_r+0x504>
    2098:	3806d0fa 	srli	r3,r7,3
    209c:	01c00044 	movi	r7,1
    20a0:	30800117 	ldw	r2,4(r6)
    20a4:	19400044 	addi	r5,r3,1
    20a8:	294b883a 	add	r5,r5,r5
    20ac:	1807d0ba 	srai	r3,r3,2
    20b0:	294b883a 	add	r5,r5,r5
    20b4:	294b883a 	add	r5,r5,r5
    20b8:	298b883a 	add	r5,r5,r6
    20bc:	38c6983a 	sll	r3,r7,r3
    20c0:	29c00017 	ldw	r7,0(r5)
    20c4:	2a7ffe04 	addi	r9,r5,-8
    20c8:	1886b03a 	or	r3,r3,r2
    20cc:	82400315 	stw	r9,12(r16)
    20d0:	81c00215 	stw	r7,8(r16)
    20d4:	30c00115 	stw	r3,4(r6)
    20d8:	2c000015 	stw	r16,0(r5)
    20dc:	3c000315 	stw	r16,12(r7)
    20e0:	2005d0ba 	srai	r2,r4,2
    20e4:	01400044 	movi	r5,1
    20e8:	288a983a 	sll	r5,r5,r2
    20ec:	19406f36 	bltu	r3,r5,22ac <_malloc_r+0x324>
    20f0:	28c4703a 	and	r2,r5,r3
    20f4:	10000a1e 	bne	r2,zero,2120 <_malloc_r+0x198>
    20f8:	00bfff04 	movi	r2,-4
    20fc:	294b883a 	add	r5,r5,r5
    2100:	2088703a 	and	r4,r4,r2
    2104:	28c4703a 	and	r2,r5,r3
    2108:	21000104 	addi	r4,r4,4
    210c:	1000041e 	bne	r2,zero,2120 <_malloc_r+0x198>
    2110:	294b883a 	add	r5,r5,r5
    2114:	28c4703a 	and	r2,r5,r3
    2118:	21000104 	addi	r4,r4,4
    211c:	103ffc26 	beq	r2,zero,2110 <__alt_mem_VGA_Subsystem_Char_Buf_Subsystem_Onchip_SRAM+0xf7002110>
    2120:	02bfff04 	movi	r10,-4
    2124:	024003c4 	movi	r9,15
    2128:	21800044 	addi	r6,r4,1
    212c:	318d883a 	add	r6,r6,r6
    2130:	318d883a 	add	r6,r6,r6
    2134:	318d883a 	add	r6,r6,r6
    2138:	998d883a 	add	r6,r19,r6
    213c:	333ffe04 	addi	r12,r6,-8
    2140:	2017883a 	mov	r11,r4
    2144:	31800104 	addi	r6,r6,4
    2148:	34000017 	ldw	r16,0(r6)
    214c:	31fffd04 	addi	r7,r6,-12
    2150:	81c0041e 	bne	r16,r7,2164 <_malloc_r+0x1dc>
    2154:	0000fb06 	br	2544 <_malloc_r+0x5bc>
    2158:	1801030e 	bge	r3,zero,2568 <_malloc_r+0x5e0>
    215c:	84000317 	ldw	r16,12(r16)
    2160:	81c0f826 	beq	r16,r7,2544 <_malloc_r+0x5bc>
    2164:	80800117 	ldw	r2,4(r16)
    2168:	1284703a 	and	r2,r2,r10
    216c:	1447c83a 	sub	r3,r2,r17
    2170:	48fff90e 	bge	r9,r3,2158 <__alt_mem_VGA_Subsystem_Char_Buf_Subsystem_Onchip_SRAM+0xf7002158>
    2174:	80800317 	ldw	r2,12(r16)
    2178:	81000217 	ldw	r4,8(r16)
    217c:	89400054 	ori	r5,r17,1
    2180:	81400115 	stw	r5,4(r16)
    2184:	20800315 	stw	r2,12(r4)
    2188:	11000215 	stw	r4,8(r2)
    218c:	8463883a 	add	r17,r16,r17
    2190:	9c400515 	stw	r17,20(r19)
    2194:	9c400415 	stw	r17,16(r19)
    2198:	18800054 	ori	r2,r3,1
    219c:	88800115 	stw	r2,4(r17)
    21a0:	8a000315 	stw	r8,12(r17)
    21a4:	8a000215 	stw	r8,8(r17)
    21a8:	88e3883a 	add	r17,r17,r3
    21ac:	88c00015 	stw	r3,0(r17)
    21b0:	9009883a 	mov	r4,r18
    21b4:	0004d800 	call	4d80 <__malloc_unlock>
    21b8:	80800204 	addi	r2,r16,8
    21bc:	00001b06 	br	222c <_malloc_r+0x2a4>
    21c0:	04400404 	movi	r17,16
    21c4:	89402536 	bltu	r17,r5,225c <_malloc_r+0x2d4>
    21c8:	0004c600 	call	4c60 <__malloc_lock>
    21cc:	00800184 	movi	r2,6
    21d0:	01000084 	movi	r4,2
    21d4:	04c00074 	movhi	r19,1
    21d8:	1085883a 	add	r2,r2,r2
    21dc:	9cc5f704 	addi	r19,r19,6108
    21e0:	1085883a 	add	r2,r2,r2
    21e4:	9885883a 	add	r2,r19,r2
    21e8:	14000117 	ldw	r16,4(r2)
    21ec:	10fffe04 	addi	r3,r2,-8
    21f0:	80c0d926 	beq	r16,r3,2558 <_malloc_r+0x5d0>
    21f4:	80c00117 	ldw	r3,4(r16)
    21f8:	81000317 	ldw	r4,12(r16)
    21fc:	00bfff04 	movi	r2,-4
    2200:	1884703a 	and	r2,r3,r2
    2204:	81400217 	ldw	r5,8(r16)
    2208:	8085883a 	add	r2,r16,r2
    220c:	10c00117 	ldw	r3,4(r2)
    2210:	29000315 	stw	r4,12(r5)
    2214:	21400215 	stw	r5,8(r4)
    2218:	18c00054 	ori	r3,r3,1
    221c:	10c00115 	stw	r3,4(r2)
    2220:	9009883a 	mov	r4,r18
    2224:	0004d800 	call	4d80 <__malloc_unlock>
    2228:	80800204 	addi	r2,r16,8
    222c:	dfc00a17 	ldw	ra,40(sp)
    2230:	df000917 	ldw	fp,36(sp)
    2234:	ddc00817 	ldw	r23,32(sp)
    2238:	dd800717 	ldw	r22,28(sp)
    223c:	dd400617 	ldw	r21,24(sp)
    2240:	dd000517 	ldw	r20,20(sp)
    2244:	dcc00417 	ldw	r19,16(sp)
    2248:	dc800317 	ldw	r18,12(sp)
    224c:	dc400217 	ldw	r17,8(sp)
    2250:	dc000117 	ldw	r16,4(sp)
    2254:	dec00b04 	addi	sp,sp,44
    2258:	f800283a 	ret
    225c:	00800304 	movi	r2,12
    2260:	90800015 	stw	r2,0(r18)
    2264:	0005883a 	mov	r2,zero
    2268:	003ff006 	br	222c <__alt_mem_VGA_Subsystem_Char_Buf_Subsystem_Onchip_SRAM+0xf700222c>
    226c:	01002004 	movi	r4,128
    2270:	02001004 	movi	r8,64
    2274:	01c00fc4 	movi	r7,63
    2278:	003f6106 	br	2000 <__alt_mem_VGA_Subsystem_Char_Buf_Subsystem_Onchip_SRAM+0xf7002000>
    227c:	4009883a 	mov	r4,r8
    2280:	003f7506 	br	2058 <__alt_mem_VGA_Subsystem_Char_Buf_Subsystem_Onchip_SRAM+0xf7002058>
    2284:	81000317 	ldw	r4,12(r16)
    2288:	003fde06 	br	2204 <__alt_mem_VGA_Subsystem_Char_Buf_Subsystem_Onchip_SRAM+0xf7002204>
    228c:	81c5883a 	add	r2,r16,r7
    2290:	11400117 	ldw	r5,4(r2)
    2294:	9009883a 	mov	r4,r18
    2298:	29400054 	ori	r5,r5,1
    229c:	11400115 	stw	r5,4(r2)
    22a0:	0004d800 	call	4d80 <__malloc_unlock>
    22a4:	80800204 	addi	r2,r16,8
    22a8:	003fe006 	br	222c <__alt_mem_VGA_Subsystem_Char_Buf_Subsystem_Onchip_SRAM+0xf700222c>
    22ac:	9c000217 	ldw	r16,8(r19)
    22b0:	00bfff04 	movi	r2,-4
    22b4:	85800117 	ldw	r22,4(r16)
    22b8:	b0ac703a 	and	r22,r22,r2
    22bc:	b4400336 	bltu	r22,r17,22cc <_malloc_r+0x344>
    22c0:	b445c83a 	sub	r2,r22,r17
    22c4:	00c003c4 	movi	r3,15
    22c8:	18805d16 	blt	r3,r2,2440 <_malloc_r+0x4b8>
    22cc:	05c00074 	movhi	r23,1
    22d0:	00800074 	movhi	r2,1
    22d4:	10940904 	addi	r2,r2,20516
    22d8:	bdcc4504 	addi	r23,r23,12564
    22dc:	15400017 	ldw	r21,0(r2)
    22e0:	b8c00017 	ldw	r3,0(r23)
    22e4:	00bfffc4 	movi	r2,-1
    22e8:	858d883a 	add	r6,r16,r22
    22ec:	8d6b883a 	add	r21,r17,r21
    22f0:	1880ea26 	beq	r3,r2,269c <_malloc_r+0x714>
    22f4:	ad4403c4 	addi	r21,r21,4111
    22f8:	00bc0004 	movi	r2,-4096
    22fc:	a8aa703a 	and	r21,r21,r2
    2300:	a80b883a 	mov	r5,r21
    2304:	9009883a 	mov	r4,r18
    2308:	d9800015 	stw	r6,0(sp)
    230c:	00031a80 	call	31a8 <_sbrk_r>
    2310:	1029883a 	mov	r20,r2
    2314:	00bfffc4 	movi	r2,-1
    2318:	d9800017 	ldw	r6,0(sp)
    231c:	a080e826 	beq	r20,r2,26c0 <_malloc_r+0x738>
    2320:	a180a636 	bltu	r20,r6,25bc <_malloc_r+0x634>
    2324:	07000074 	movhi	fp,1
    2328:	e7142b04 	addi	fp,fp,20652
    232c:	e0800017 	ldw	r2,0(fp)
    2330:	a887883a 	add	r3,r21,r2
    2334:	e0c00015 	stw	r3,0(fp)
    2338:	3500e626 	beq	r6,r20,26d4 <_malloc_r+0x74c>
    233c:	b9000017 	ldw	r4,0(r23)
    2340:	00bfffc4 	movi	r2,-1
    2344:	2080ee26 	beq	r4,r2,2700 <_malloc_r+0x778>
    2348:	a185c83a 	sub	r2,r20,r6
    234c:	10c5883a 	add	r2,r2,r3
    2350:	e0800015 	stw	r2,0(fp)
    2354:	a0c001cc 	andi	r3,r20,7
    2358:	1800bc26 	beq	r3,zero,264c <_malloc_r+0x6c4>
    235c:	a0e9c83a 	sub	r20,r20,r3
    2360:	00840204 	movi	r2,4104
    2364:	a5000204 	addi	r20,r20,8
    2368:	10c7c83a 	sub	r3,r2,r3
    236c:	a545883a 	add	r2,r20,r21
    2370:	1083ffcc 	andi	r2,r2,4095
    2374:	18abc83a 	sub	r21,r3,r2
    2378:	a80b883a 	mov	r5,r21
    237c:	9009883a 	mov	r4,r18
    2380:	00031a80 	call	31a8 <_sbrk_r>
    2384:	00ffffc4 	movi	r3,-1
    2388:	10c0e126 	beq	r2,r3,2710 <_malloc_r+0x788>
    238c:	1505c83a 	sub	r2,r2,r20
    2390:	1545883a 	add	r2,r2,r21
    2394:	10800054 	ori	r2,r2,1
    2398:	e0c00017 	ldw	r3,0(fp)
    239c:	9d000215 	stw	r20,8(r19)
    23a0:	a0800115 	stw	r2,4(r20)
    23a4:	a8c7883a 	add	r3,r21,r3
    23a8:	e0c00015 	stw	r3,0(fp)
    23ac:	84c00e26 	beq	r16,r19,23e8 <_malloc_r+0x460>
    23b0:	018003c4 	movi	r6,15
    23b4:	3580a72e 	bgeu	r6,r22,2654 <_malloc_r+0x6cc>
    23b8:	81400117 	ldw	r5,4(r16)
    23bc:	013ffe04 	movi	r4,-8
    23c0:	b0bffd04 	addi	r2,r22,-12
    23c4:	1104703a 	and	r2,r2,r4
    23c8:	2900004c 	andi	r4,r5,1
    23cc:	2088b03a 	or	r4,r4,r2
    23d0:	81000115 	stw	r4,4(r16)
    23d4:	01400144 	movi	r5,5
    23d8:	8089883a 	add	r4,r16,r2
    23dc:	21400115 	stw	r5,4(r4)
    23e0:	21400215 	stw	r5,8(r4)
    23e4:	3080cd36 	bltu	r6,r2,271c <_malloc_r+0x794>
    23e8:	00800074 	movhi	r2,1
    23ec:	10940804 	addi	r2,r2,20512
    23f0:	11000017 	ldw	r4,0(r2)
    23f4:	20c0012e 	bgeu	r4,r3,23fc <_malloc_r+0x474>
    23f8:	10c00015 	stw	r3,0(r2)
    23fc:	00800074 	movhi	r2,1
    2400:	10940704 	addi	r2,r2,20508
    2404:	11000017 	ldw	r4,0(r2)
    2408:	9c000217 	ldw	r16,8(r19)
    240c:	20c0012e 	bgeu	r4,r3,2414 <_malloc_r+0x48c>
    2410:	10c00015 	stw	r3,0(r2)
    2414:	80c00117 	ldw	r3,4(r16)
    2418:	00bfff04 	movi	r2,-4
    241c:	1886703a 	and	r3,r3,r2
    2420:	1c45c83a 	sub	r2,r3,r17
    2424:	1c400236 	bltu	r3,r17,2430 <_malloc_r+0x4a8>
    2428:	00c003c4 	movi	r3,15
    242c:	18800416 	blt	r3,r2,2440 <_malloc_r+0x4b8>
    2430:	9009883a 	mov	r4,r18
    2434:	0004d800 	call	4d80 <__malloc_unlock>
    2438:	0005883a 	mov	r2,zero
    243c:	003f7b06 	br	222c <__alt_mem_VGA_Subsystem_Char_Buf_Subsystem_Onchip_SRAM+0xf700222c>
    2440:	88c00054 	ori	r3,r17,1
    2444:	80c00115 	stw	r3,4(r16)
    2448:	8463883a 	add	r17,r16,r17
    244c:	10800054 	ori	r2,r2,1
    2450:	9c400215 	stw	r17,8(r19)
    2454:	88800115 	stw	r2,4(r17)
    2458:	9009883a 	mov	r4,r18
    245c:	0004d800 	call	4d80 <__malloc_unlock>
    2460:	80800204 	addi	r2,r16,8
    2464:	003f7106 	br	222c <__alt_mem_VGA_Subsystem_Char_Buf_Subsystem_Onchip_SRAM+0xf700222c>
    2468:	00c00504 	movi	r3,20
    246c:	18804a2e 	bgeu	r3,r2,2598 <_malloc_r+0x610>
    2470:	00c01504 	movi	r3,84
    2474:	18806e36 	bltu	r3,r2,2630 <_malloc_r+0x6a8>
    2478:	8804d33a 	srli	r2,r17,12
    247c:	12001bc4 	addi	r8,r2,111
    2480:	11c01b84 	addi	r7,r2,110
    2484:	4209883a 	add	r4,r8,r8
    2488:	003edd06 	br	2000 <__alt_mem_VGA_Subsystem_Char_Buf_Subsystem_Onchip_SRAM+0xf7002000>
    248c:	3804d27a 	srli	r2,r7,9
    2490:	00c00104 	movi	r3,4
    2494:	1880442e 	bgeu	r3,r2,25a8 <_malloc_r+0x620>
    2498:	00c00504 	movi	r3,20
    249c:	18808136 	bltu	r3,r2,26a4 <_malloc_r+0x71c>
    24a0:	11401704 	addi	r5,r2,92
    24a4:	10c016c4 	addi	r3,r2,91
    24a8:	294b883a 	add	r5,r5,r5
    24ac:	294b883a 	add	r5,r5,r5
    24b0:	294b883a 	add	r5,r5,r5
    24b4:	994b883a 	add	r5,r19,r5
    24b8:	28800017 	ldw	r2,0(r5)
    24bc:	01800074 	movhi	r6,1
    24c0:	297ffe04 	addi	r5,r5,-8
    24c4:	3185f704 	addi	r6,r6,6108
    24c8:	28806526 	beq	r5,r2,2660 <_malloc_r+0x6d8>
    24cc:	01bfff04 	movi	r6,-4
    24d0:	10c00117 	ldw	r3,4(r2)
    24d4:	1986703a 	and	r3,r3,r6
    24d8:	38c0022e 	bgeu	r7,r3,24e4 <_malloc_r+0x55c>
    24dc:	10800217 	ldw	r2,8(r2)
    24e0:	28bffb1e 	bne	r5,r2,24d0 <__alt_mem_VGA_Subsystem_Char_Buf_Subsystem_Onchip_SRAM+0xf70024d0>
    24e4:	11400317 	ldw	r5,12(r2)
    24e8:	98c00117 	ldw	r3,4(r19)
    24ec:	81400315 	stw	r5,12(r16)
    24f0:	80800215 	stw	r2,8(r16)
    24f4:	2c000215 	stw	r16,8(r5)
    24f8:	14000315 	stw	r16,12(r2)
    24fc:	003ef806 	br	20e0 <__alt_mem_VGA_Subsystem_Char_Buf_Subsystem_Onchip_SRAM+0xf70020e0>
    2500:	88c00054 	ori	r3,r17,1
    2504:	80c00115 	stw	r3,4(r16)
    2508:	8463883a 	add	r17,r16,r17
    250c:	34400515 	stw	r17,20(r6)
    2510:	34400415 	stw	r17,16(r6)
    2514:	10c00054 	ori	r3,r2,1
    2518:	8a000315 	stw	r8,12(r17)
    251c:	8a000215 	stw	r8,8(r17)
    2520:	88c00115 	stw	r3,4(r17)
    2524:	88a3883a 	add	r17,r17,r2
    2528:	88800015 	stw	r2,0(r17)
    252c:	9009883a 	mov	r4,r18
    2530:	0004d800 	call	4d80 <__malloc_unlock>
    2534:	80800204 	addi	r2,r16,8
    2538:	003f3c06 	br	222c <__alt_mem_VGA_Subsystem_Char_Buf_Subsystem_Onchip_SRAM+0xf700222c>
    253c:	30c00117 	ldw	r3,4(r6)
    2540:	003ee706 	br	20e0 <__alt_mem_VGA_Subsystem_Char_Buf_Subsystem_Onchip_SRAM+0xf70020e0>
    2544:	5ac00044 	addi	r11,r11,1
    2548:	588000cc 	andi	r2,r11,3
    254c:	31800204 	addi	r6,r6,8
    2550:	103efd1e 	bne	r2,zero,2148 <__alt_mem_VGA_Subsystem_Char_Buf_Subsystem_Onchip_SRAM+0xf7002148>
    2554:	00002406 	br	25e8 <_malloc_r+0x660>
    2558:	14000317 	ldw	r16,12(r2)
    255c:	143f251e 	bne	r2,r16,21f4 <__alt_mem_VGA_Subsystem_Char_Buf_Subsystem_Onchip_SRAM+0xf70021f4>
    2560:	21000084 	addi	r4,r4,2
    2564:	003ebc06 	br	2058 <__alt_mem_VGA_Subsystem_Char_Buf_Subsystem_Onchip_SRAM+0xf7002058>
    2568:	8085883a 	add	r2,r16,r2
    256c:	10c00117 	ldw	r3,4(r2)
    2570:	81000317 	ldw	r4,12(r16)
    2574:	81400217 	ldw	r5,8(r16)
    2578:	18c00054 	ori	r3,r3,1
    257c:	10c00115 	stw	r3,4(r2)
    2580:	29000315 	stw	r4,12(r5)
    2584:	21400215 	stw	r5,8(r4)
    2588:	9009883a 	mov	r4,r18
    258c:	0004d800 	call	4d80 <__malloc_unlock>
    2590:	80800204 	addi	r2,r16,8
    2594:	003f2506 	br	222c <__alt_mem_VGA_Subsystem_Char_Buf_Subsystem_Onchip_SRAM+0xf700222c>
    2598:	12001704 	addi	r8,r2,92
    259c:	11c016c4 	addi	r7,r2,91
    25a0:	4209883a 	add	r4,r8,r8
    25a4:	003e9606 	br	2000 <__alt_mem_VGA_Subsystem_Char_Buf_Subsystem_Onchip_SRAM+0xf7002000>
    25a8:	3804d1ba 	srli	r2,r7,6
    25ac:	11400e44 	addi	r5,r2,57
    25b0:	10c00e04 	addi	r3,r2,56
    25b4:	294b883a 	add	r5,r5,r5
    25b8:	003fbc06 	br	24ac <__alt_mem_VGA_Subsystem_Char_Buf_Subsystem_Onchip_SRAM+0xf70024ac>
    25bc:	84ff5926 	beq	r16,r19,2324 <__alt_mem_VGA_Subsystem_Char_Buf_Subsystem_Onchip_SRAM+0xf7002324>
    25c0:	00800074 	movhi	r2,1
    25c4:	1085f704 	addi	r2,r2,6108
    25c8:	14000217 	ldw	r16,8(r2)
    25cc:	00bfff04 	movi	r2,-4
    25d0:	80c00117 	ldw	r3,4(r16)
    25d4:	1886703a 	and	r3,r3,r2
    25d8:	003f9106 	br	2420 <__alt_mem_VGA_Subsystem_Char_Buf_Subsystem_Onchip_SRAM+0xf7002420>
    25dc:	60800217 	ldw	r2,8(r12)
    25e0:	213fffc4 	addi	r4,r4,-1
    25e4:	1300651e 	bne	r2,r12,277c <_malloc_r+0x7f4>
    25e8:	208000cc 	andi	r2,r4,3
    25ec:	633ffe04 	addi	r12,r12,-8
    25f0:	103ffa1e 	bne	r2,zero,25dc <__alt_mem_VGA_Subsystem_Char_Buf_Subsystem_Onchip_SRAM+0xf70025dc>
    25f4:	98800117 	ldw	r2,4(r19)
    25f8:	0146303a 	nor	r3,zero,r5
    25fc:	1884703a 	and	r2,r3,r2
    2600:	98800115 	stw	r2,4(r19)
    2604:	294b883a 	add	r5,r5,r5
    2608:	117f2836 	bltu	r2,r5,22ac <__alt_mem_VGA_Subsystem_Char_Buf_Subsystem_Onchip_SRAM+0xf70022ac>
    260c:	283f2726 	beq	r5,zero,22ac <__alt_mem_VGA_Subsystem_Char_Buf_Subsystem_Onchip_SRAM+0xf70022ac>
    2610:	2886703a 	and	r3,r5,r2
    2614:	5809883a 	mov	r4,r11
    2618:	183ec31e 	bne	r3,zero,2128 <__alt_mem_VGA_Subsystem_Char_Buf_Subsystem_Onchip_SRAM+0xf7002128>
    261c:	294b883a 	add	r5,r5,r5
    2620:	2886703a 	and	r3,r5,r2
    2624:	21000104 	addi	r4,r4,4
    2628:	183ffc26 	beq	r3,zero,261c <__alt_mem_VGA_Subsystem_Char_Buf_Subsystem_Onchip_SRAM+0xf700261c>
    262c:	003ebe06 	br	2128 <__alt_mem_VGA_Subsystem_Char_Buf_Subsystem_Onchip_SRAM+0xf7002128>
    2630:	00c05504 	movi	r3,340
    2634:	18801236 	bltu	r3,r2,2680 <_malloc_r+0x6f8>
    2638:	8804d3fa 	srli	r2,r17,15
    263c:	12001e04 	addi	r8,r2,120
    2640:	11c01dc4 	addi	r7,r2,119
    2644:	4209883a 	add	r4,r8,r8
    2648:	003e6d06 	br	2000 <__alt_mem_VGA_Subsystem_Char_Buf_Subsystem_Onchip_SRAM+0xf7002000>
    264c:	00c40004 	movi	r3,4096
    2650:	003f4606 	br	236c <__alt_mem_VGA_Subsystem_Char_Buf_Subsystem_Onchip_SRAM+0xf700236c>
    2654:	00800044 	movi	r2,1
    2658:	a0800115 	stw	r2,4(r20)
    265c:	003f7406 	br	2430 <__alt_mem_VGA_Subsystem_Char_Buf_Subsystem_Onchip_SRAM+0xf7002430>
    2660:	1805d0ba 	srai	r2,r3,2
    2664:	01c00044 	movi	r7,1
    2668:	30c00117 	ldw	r3,4(r6)
    266c:	388e983a 	sll	r7,r7,r2
    2670:	2805883a 	mov	r2,r5
    2674:	38c6b03a 	or	r3,r7,r3
    2678:	30c00115 	stw	r3,4(r6)
    267c:	003f9b06 	br	24ec <__alt_mem_VGA_Subsystem_Char_Buf_Subsystem_Onchip_SRAM+0xf70024ec>
    2680:	00c15504 	movi	r3,1364
    2684:	18801a36 	bltu	r3,r2,26f0 <_malloc_r+0x768>
    2688:	8804d4ba 	srli	r2,r17,18
    268c:	12001f44 	addi	r8,r2,125
    2690:	11c01f04 	addi	r7,r2,124
    2694:	4209883a 	add	r4,r8,r8
    2698:	003e5906 	br	2000 <__alt_mem_VGA_Subsystem_Char_Buf_Subsystem_Onchip_SRAM+0xf7002000>
    269c:	ad400404 	addi	r21,r21,16
    26a0:	003f1706 	br	2300 <__alt_mem_VGA_Subsystem_Char_Buf_Subsystem_Onchip_SRAM+0xf7002300>
    26a4:	00c01504 	movi	r3,84
    26a8:	18802336 	bltu	r3,r2,2738 <_malloc_r+0x7b0>
    26ac:	3804d33a 	srli	r2,r7,12
    26b0:	11401bc4 	addi	r5,r2,111
    26b4:	10c01b84 	addi	r3,r2,110
    26b8:	294b883a 	add	r5,r5,r5
    26bc:	003f7b06 	br	24ac <__alt_mem_VGA_Subsystem_Char_Buf_Subsystem_Onchip_SRAM+0xf70024ac>
    26c0:	9c000217 	ldw	r16,8(r19)
    26c4:	00bfff04 	movi	r2,-4
    26c8:	80c00117 	ldw	r3,4(r16)
    26cc:	1886703a 	and	r3,r3,r2
    26d0:	003f5306 	br	2420 <__alt_mem_VGA_Subsystem_Char_Buf_Subsystem_Onchip_SRAM+0xf7002420>
    26d4:	3083ffcc 	andi	r2,r6,4095
    26d8:	103f181e 	bne	r2,zero,233c <__alt_mem_VGA_Subsystem_Char_Buf_Subsystem_Onchip_SRAM+0xf700233c>
    26dc:	99000217 	ldw	r4,8(r19)
    26e0:	b545883a 	add	r2,r22,r21
    26e4:	10800054 	ori	r2,r2,1
    26e8:	20800115 	stw	r2,4(r4)
    26ec:	003f3e06 	br	23e8 <__alt_mem_VGA_Subsystem_Char_Buf_Subsystem_Onchip_SRAM+0xf70023e8>
    26f0:	01003f84 	movi	r4,254
    26f4:	02001fc4 	movi	r8,127
    26f8:	01c01f84 	movi	r7,126
    26fc:	003e4006 	br	2000 <__alt_mem_VGA_Subsystem_Char_Buf_Subsystem_Onchip_SRAM+0xf7002000>
    2700:	00800074 	movhi	r2,1
    2704:	108c4504 	addi	r2,r2,12564
    2708:	15000015 	stw	r20,0(r2)
    270c:	003f1106 	br	2354 <__alt_mem_VGA_Subsystem_Char_Buf_Subsystem_Onchip_SRAM+0xf7002354>
    2710:	00800044 	movi	r2,1
    2714:	002b883a 	mov	r21,zero
    2718:	003f1f06 	br	2398 <__alt_mem_VGA_Subsystem_Char_Buf_Subsystem_Onchip_SRAM+0xf7002398>
    271c:	81400204 	addi	r5,r16,8
    2720:	9009883a 	mov	r4,r18
    2724:	0003a100 	call	3a10 <_free_r>
    2728:	00800074 	movhi	r2,1
    272c:	10942b04 	addi	r2,r2,20652
    2730:	10c00017 	ldw	r3,0(r2)
    2734:	003f2c06 	br	23e8 <__alt_mem_VGA_Subsystem_Char_Buf_Subsystem_Onchip_SRAM+0xf70023e8>
    2738:	00c05504 	movi	r3,340
    273c:	18800536 	bltu	r3,r2,2754 <_malloc_r+0x7cc>
    2740:	3804d3fa 	srli	r2,r7,15
    2744:	11401e04 	addi	r5,r2,120
    2748:	10c01dc4 	addi	r3,r2,119
    274c:	294b883a 	add	r5,r5,r5
    2750:	003f5606 	br	24ac <__alt_mem_VGA_Subsystem_Char_Buf_Subsystem_Onchip_SRAM+0xf70024ac>
    2754:	00c15504 	movi	r3,1364
    2758:	18800536 	bltu	r3,r2,2770 <_malloc_r+0x7e8>
    275c:	3804d4ba 	srli	r2,r7,18
    2760:	11401f44 	addi	r5,r2,125
    2764:	10c01f04 	addi	r3,r2,124
    2768:	294b883a 	add	r5,r5,r5
    276c:	003f4f06 	br	24ac <__alt_mem_VGA_Subsystem_Char_Buf_Subsystem_Onchip_SRAM+0xf70024ac>
    2770:	01403f84 	movi	r5,254
    2774:	00c01f84 	movi	r3,126
    2778:	003f4c06 	br	24ac <__alt_mem_VGA_Subsystem_Char_Buf_Subsystem_Onchip_SRAM+0xf70024ac>
    277c:	98800117 	ldw	r2,4(r19)
    2780:	003fa006 	br	2604 <__alt_mem_VGA_Subsystem_Char_Buf_Subsystem_Onchip_SRAM+0xf7002604>
    2784:	8808d0fa 	srli	r4,r17,3
    2788:	20800044 	addi	r2,r4,1
    278c:	1085883a 	add	r2,r2,r2
    2790:	003e9006 	br	21d4 <__alt_mem_VGA_Subsystem_Char_Buf_Subsystem_Onchip_SRAM+0xf70021d4>

00002794 <memchr>:
    2794:	208000cc 	andi	r2,r4,3
    2798:	280f883a 	mov	r7,r5
    279c:	10003426 	beq	r2,zero,2870 <memchr+0xdc>
    27a0:	30bfffc4 	addi	r2,r6,-1
    27a4:	30001a26 	beq	r6,zero,2810 <memchr+0x7c>
    27a8:	20c00003 	ldbu	r3,0(r4)
    27ac:	29803fcc 	andi	r6,r5,255
    27b0:	30c0051e 	bne	r6,r3,27c8 <memchr+0x34>
    27b4:	00001806 	br	2818 <memchr+0x84>
    27b8:	10001526 	beq	r2,zero,2810 <memchr+0x7c>
    27bc:	20c00003 	ldbu	r3,0(r4)
    27c0:	10bfffc4 	addi	r2,r2,-1
    27c4:	30c01426 	beq	r6,r3,2818 <memchr+0x84>
    27c8:	21000044 	addi	r4,r4,1
    27cc:	20c000cc 	andi	r3,r4,3
    27d0:	183ff91e 	bne	r3,zero,27b8 <__alt_mem_VGA_Subsystem_Char_Buf_Subsystem_Onchip_SRAM+0xf70027b8>
    27d4:	020000c4 	movi	r8,3
    27d8:	40801136 	bltu	r8,r2,2820 <memchr+0x8c>
    27dc:	10000c26 	beq	r2,zero,2810 <memchr+0x7c>
    27e0:	20c00003 	ldbu	r3,0(r4)
    27e4:	29403fcc 	andi	r5,r5,255
    27e8:	28c00b26 	beq	r5,r3,2818 <memchr+0x84>
    27ec:	20c00044 	addi	r3,r4,1
    27f0:	39803fcc 	andi	r6,r7,255
    27f4:	2089883a 	add	r4,r4,r2
    27f8:	00000306 	br	2808 <memchr+0x74>
    27fc:	18c00044 	addi	r3,r3,1
    2800:	197fffc3 	ldbu	r5,-1(r3)
    2804:	31400526 	beq	r6,r5,281c <memchr+0x88>
    2808:	1805883a 	mov	r2,r3
    280c:	20fffb1e 	bne	r4,r3,27fc <__alt_mem_VGA_Subsystem_Char_Buf_Subsystem_Onchip_SRAM+0xf70027fc>
    2810:	0005883a 	mov	r2,zero
    2814:	f800283a 	ret
    2818:	2005883a 	mov	r2,r4
    281c:	f800283a 	ret
    2820:	28c03fcc 	andi	r3,r5,255
    2824:	1812923a 	slli	r9,r3,8
    2828:	02ffbff4 	movhi	r11,65279
    282c:	02a02074 	movhi	r10,32897
    2830:	48d2b03a 	or	r9,r9,r3
    2834:	4806943a 	slli	r3,r9,16
    2838:	5affbfc4 	addi	r11,r11,-257
    283c:	52a02004 	addi	r10,r10,-32640
    2840:	48d2b03a 	or	r9,r9,r3
    2844:	20c00017 	ldw	r3,0(r4)
    2848:	48c6f03a 	xor	r3,r9,r3
    284c:	1acd883a 	add	r6,r3,r11
    2850:	00c6303a 	nor	r3,zero,r3
    2854:	30c6703a 	and	r3,r6,r3
    2858:	1a86703a 	and	r3,r3,r10
    285c:	183fe01e 	bne	r3,zero,27e0 <__alt_mem_VGA_Subsystem_Char_Buf_Subsystem_Onchip_SRAM+0xf70027e0>
    2860:	10bfff04 	addi	r2,r2,-4
    2864:	21000104 	addi	r4,r4,4
    2868:	40bff636 	bltu	r8,r2,2844 <__alt_mem_VGA_Subsystem_Char_Buf_Subsystem_Onchip_SRAM+0xf7002844>
    286c:	003fdb06 	br	27dc <__alt_mem_VGA_Subsystem_Char_Buf_Subsystem_Onchip_SRAM+0xf70027dc>
    2870:	3005883a 	mov	r2,r6
    2874:	003fd706 	br	27d4 <__alt_mem_VGA_Subsystem_Char_Buf_Subsystem_Onchip_SRAM+0xf70027d4>

00002878 <memcpy>:
    2878:	defffd04 	addi	sp,sp,-12
    287c:	dfc00215 	stw	ra,8(sp)
    2880:	dc400115 	stw	r17,4(sp)
    2884:	dc000015 	stw	r16,0(sp)
    2888:	00c003c4 	movi	r3,15
    288c:	2005883a 	mov	r2,r4
    2890:	1980452e 	bgeu	r3,r6,29a8 <memcpy+0x130>
    2894:	2906b03a 	or	r3,r5,r4
    2898:	18c000cc 	andi	r3,r3,3
    289c:	1800441e 	bne	r3,zero,29b0 <memcpy+0x138>
    28a0:	347ffc04 	addi	r17,r6,-16
    28a4:	8822d13a 	srli	r17,r17,4
    28a8:	28c00104 	addi	r3,r5,4
    28ac:	23400104 	addi	r13,r4,4
    28b0:	8820913a 	slli	r16,r17,4
    28b4:	2b000204 	addi	r12,r5,8
    28b8:	22c00204 	addi	r11,r4,8
    28bc:	84000504 	addi	r16,r16,20
    28c0:	2a800304 	addi	r10,r5,12
    28c4:	22400304 	addi	r9,r4,12
    28c8:	2c21883a 	add	r16,r5,r16
    28cc:	2811883a 	mov	r8,r5
    28d0:	200f883a 	mov	r7,r4
    28d4:	41000017 	ldw	r4,0(r8)
    28d8:	1fc00017 	ldw	ra,0(r3)
    28dc:	63c00017 	ldw	r15,0(r12)
    28e0:	39000015 	stw	r4,0(r7)
    28e4:	53800017 	ldw	r14,0(r10)
    28e8:	6fc00015 	stw	ra,0(r13)
    28ec:	5bc00015 	stw	r15,0(r11)
    28f0:	4b800015 	stw	r14,0(r9)
    28f4:	18c00404 	addi	r3,r3,16
    28f8:	39c00404 	addi	r7,r7,16
    28fc:	42000404 	addi	r8,r8,16
    2900:	6b400404 	addi	r13,r13,16
    2904:	63000404 	addi	r12,r12,16
    2908:	5ac00404 	addi	r11,r11,16
    290c:	52800404 	addi	r10,r10,16
    2910:	4a400404 	addi	r9,r9,16
    2914:	1c3fef1e 	bne	r3,r16,28d4 <__alt_mem_VGA_Subsystem_Char_Buf_Subsystem_Onchip_SRAM+0xf70028d4>
    2918:	89c00044 	addi	r7,r17,1
    291c:	380e913a 	slli	r7,r7,4
    2920:	310003cc 	andi	r4,r6,15
    2924:	02c000c4 	movi	r11,3
    2928:	11c7883a 	add	r3,r2,r7
    292c:	29cb883a 	add	r5,r5,r7
    2930:	5900212e 	bgeu	r11,r4,29b8 <memcpy+0x140>
    2934:	1813883a 	mov	r9,r3
    2938:	2811883a 	mov	r8,r5
    293c:	200f883a 	mov	r7,r4
    2940:	42800017 	ldw	r10,0(r8)
    2944:	4a400104 	addi	r9,r9,4
    2948:	39ffff04 	addi	r7,r7,-4
    294c:	4abfff15 	stw	r10,-4(r9)
    2950:	42000104 	addi	r8,r8,4
    2954:	59fffa36 	bltu	r11,r7,2940 <__alt_mem_VGA_Subsystem_Char_Buf_Subsystem_Onchip_SRAM+0xf7002940>
    2958:	213fff04 	addi	r4,r4,-4
    295c:	2008d0ba 	srli	r4,r4,2
    2960:	318000cc 	andi	r6,r6,3
    2964:	21000044 	addi	r4,r4,1
    2968:	2109883a 	add	r4,r4,r4
    296c:	2109883a 	add	r4,r4,r4
    2970:	1907883a 	add	r3,r3,r4
    2974:	290b883a 	add	r5,r5,r4
    2978:	30000626 	beq	r6,zero,2994 <memcpy+0x11c>
    297c:	198d883a 	add	r6,r3,r6
    2980:	29c00003 	ldbu	r7,0(r5)
    2984:	18c00044 	addi	r3,r3,1
    2988:	29400044 	addi	r5,r5,1
    298c:	19ffffc5 	stb	r7,-1(r3)
    2990:	19bffb1e 	bne	r3,r6,2980 <__alt_mem_VGA_Subsystem_Char_Buf_Subsystem_Onchip_SRAM+0xf7002980>
    2994:	dfc00217 	ldw	ra,8(sp)
    2998:	dc400117 	ldw	r17,4(sp)
    299c:	dc000017 	ldw	r16,0(sp)
    29a0:	dec00304 	addi	sp,sp,12
    29a4:	f800283a 	ret
    29a8:	2007883a 	mov	r3,r4
    29ac:	003ff206 	br	2978 <__alt_mem_VGA_Subsystem_Char_Buf_Subsystem_Onchip_SRAM+0xf7002978>
    29b0:	2007883a 	mov	r3,r4
    29b4:	003ff106 	br	297c <__alt_mem_VGA_Subsystem_Char_Buf_Subsystem_Onchip_SRAM+0xf700297c>
    29b8:	200d883a 	mov	r6,r4
    29bc:	003fee06 	br	2978 <__alt_mem_VGA_Subsystem_Char_Buf_Subsystem_Onchip_SRAM+0xf7002978>

000029c0 <memmove>:
    29c0:	2005883a 	mov	r2,r4
    29c4:	29000b2e 	bgeu	r5,r4,29f4 <memmove+0x34>
    29c8:	298f883a 	add	r7,r5,r6
    29cc:	21c0092e 	bgeu	r4,r7,29f4 <memmove+0x34>
    29d0:	2187883a 	add	r3,r4,r6
    29d4:	198bc83a 	sub	r5,r3,r6
    29d8:	30004826 	beq	r6,zero,2afc <memmove+0x13c>
    29dc:	39ffffc4 	addi	r7,r7,-1
    29e0:	39000003 	ldbu	r4,0(r7)
    29e4:	18ffffc4 	addi	r3,r3,-1
    29e8:	19000005 	stb	r4,0(r3)
    29ec:	28fffb1e 	bne	r5,r3,29dc <__alt_mem_VGA_Subsystem_Char_Buf_Subsystem_Onchip_SRAM+0xf70029dc>
    29f0:	f800283a 	ret
    29f4:	00c003c4 	movi	r3,15
    29f8:	1980412e 	bgeu	r3,r6,2b00 <memmove+0x140>
    29fc:	2886b03a 	or	r3,r5,r2
    2a00:	18c000cc 	andi	r3,r3,3
    2a04:	1800401e 	bne	r3,zero,2b08 <memmove+0x148>
    2a08:	33fffc04 	addi	r15,r6,-16
    2a0c:	781ed13a 	srli	r15,r15,4
    2a10:	28c00104 	addi	r3,r5,4
    2a14:	13400104 	addi	r13,r2,4
    2a18:	781c913a 	slli	r14,r15,4
    2a1c:	2b000204 	addi	r12,r5,8
    2a20:	12c00204 	addi	r11,r2,8
    2a24:	73800504 	addi	r14,r14,20
    2a28:	2a800304 	addi	r10,r5,12
    2a2c:	12400304 	addi	r9,r2,12
    2a30:	2b9d883a 	add	r14,r5,r14
    2a34:	2811883a 	mov	r8,r5
    2a38:	100f883a 	mov	r7,r2
    2a3c:	41000017 	ldw	r4,0(r8)
    2a40:	39c00404 	addi	r7,r7,16
    2a44:	18c00404 	addi	r3,r3,16
    2a48:	393ffc15 	stw	r4,-16(r7)
    2a4c:	193ffc17 	ldw	r4,-16(r3)
    2a50:	6b400404 	addi	r13,r13,16
    2a54:	5ac00404 	addi	r11,r11,16
    2a58:	693ffc15 	stw	r4,-16(r13)
    2a5c:	61000017 	ldw	r4,0(r12)
    2a60:	4a400404 	addi	r9,r9,16
    2a64:	42000404 	addi	r8,r8,16
    2a68:	593ffc15 	stw	r4,-16(r11)
    2a6c:	51000017 	ldw	r4,0(r10)
    2a70:	63000404 	addi	r12,r12,16
    2a74:	52800404 	addi	r10,r10,16
    2a78:	493ffc15 	stw	r4,-16(r9)
    2a7c:	1bbfef1e 	bne	r3,r14,2a3c <__alt_mem_VGA_Subsystem_Char_Buf_Subsystem_Onchip_SRAM+0xf7002a3c>
    2a80:	79000044 	addi	r4,r15,1
    2a84:	2008913a 	slli	r4,r4,4
    2a88:	328003cc 	andi	r10,r6,15
    2a8c:	02c000c4 	movi	r11,3
    2a90:	1107883a 	add	r3,r2,r4
    2a94:	290b883a 	add	r5,r5,r4
    2a98:	5a801e2e 	bgeu	r11,r10,2b14 <memmove+0x154>
    2a9c:	1813883a 	mov	r9,r3
    2aa0:	2811883a 	mov	r8,r5
    2aa4:	500f883a 	mov	r7,r10
    2aa8:	41000017 	ldw	r4,0(r8)
    2aac:	4a400104 	addi	r9,r9,4
    2ab0:	39ffff04 	addi	r7,r7,-4
    2ab4:	493fff15 	stw	r4,-4(r9)
    2ab8:	42000104 	addi	r8,r8,4
    2abc:	59fffa36 	bltu	r11,r7,2aa8 <__alt_mem_VGA_Subsystem_Char_Buf_Subsystem_Onchip_SRAM+0xf7002aa8>
    2ac0:	513fff04 	addi	r4,r10,-4
    2ac4:	2008d0ba 	srli	r4,r4,2
    2ac8:	318000cc 	andi	r6,r6,3
    2acc:	21000044 	addi	r4,r4,1
    2ad0:	2109883a 	add	r4,r4,r4
    2ad4:	2109883a 	add	r4,r4,r4
    2ad8:	1907883a 	add	r3,r3,r4
    2adc:	290b883a 	add	r5,r5,r4
    2ae0:	30000b26 	beq	r6,zero,2b10 <memmove+0x150>
    2ae4:	198d883a 	add	r6,r3,r6
    2ae8:	29c00003 	ldbu	r7,0(r5)
    2aec:	18c00044 	addi	r3,r3,1
    2af0:	29400044 	addi	r5,r5,1
    2af4:	19ffffc5 	stb	r7,-1(r3)
    2af8:	19bffb1e 	bne	r3,r6,2ae8 <__alt_mem_VGA_Subsystem_Char_Buf_Subsystem_Onchip_SRAM+0xf7002ae8>
    2afc:	f800283a 	ret
    2b00:	1007883a 	mov	r3,r2
    2b04:	003ff606 	br	2ae0 <__alt_mem_VGA_Subsystem_Char_Buf_Subsystem_Onchip_SRAM+0xf7002ae0>
    2b08:	1007883a 	mov	r3,r2
    2b0c:	003ff506 	br	2ae4 <__alt_mem_VGA_Subsystem_Char_Buf_Subsystem_Onchip_SRAM+0xf7002ae4>
    2b10:	f800283a 	ret
    2b14:	500d883a 	mov	r6,r10
    2b18:	003ff106 	br	2ae0 <__alt_mem_VGA_Subsystem_Char_Buf_Subsystem_Onchip_SRAM+0xf7002ae0>

00002b1c <memset>:
    2b1c:	20c000cc 	andi	r3,r4,3
    2b20:	2005883a 	mov	r2,r4
    2b24:	18004426 	beq	r3,zero,2c38 <memset+0x11c>
    2b28:	31ffffc4 	addi	r7,r6,-1
    2b2c:	30004026 	beq	r6,zero,2c30 <memset+0x114>
    2b30:	2813883a 	mov	r9,r5
    2b34:	200d883a 	mov	r6,r4
    2b38:	2007883a 	mov	r3,r4
    2b3c:	00000406 	br	2b50 <memset+0x34>
    2b40:	3a3fffc4 	addi	r8,r7,-1
    2b44:	31800044 	addi	r6,r6,1
    2b48:	38003926 	beq	r7,zero,2c30 <memset+0x114>
    2b4c:	400f883a 	mov	r7,r8
    2b50:	18c00044 	addi	r3,r3,1
    2b54:	32400005 	stb	r9,0(r6)
    2b58:	1a0000cc 	andi	r8,r3,3
    2b5c:	403ff81e 	bne	r8,zero,2b40 <__alt_mem_VGA_Subsystem_Char_Buf_Subsystem_Onchip_SRAM+0xf7002b40>
    2b60:	010000c4 	movi	r4,3
    2b64:	21c02d2e 	bgeu	r4,r7,2c1c <memset+0x100>
    2b68:	29003fcc 	andi	r4,r5,255
    2b6c:	200c923a 	slli	r6,r4,8
    2b70:	3108b03a 	or	r4,r6,r4
    2b74:	200c943a 	slli	r6,r4,16
    2b78:	218cb03a 	or	r6,r4,r6
    2b7c:	010003c4 	movi	r4,15
    2b80:	21c0182e 	bgeu	r4,r7,2be4 <memset+0xc8>
    2b84:	3b3ffc04 	addi	r12,r7,-16
    2b88:	6018d13a 	srli	r12,r12,4
    2b8c:	1a000104 	addi	r8,r3,4
    2b90:	1ac00204 	addi	r11,r3,8
    2b94:	6008913a 	slli	r4,r12,4
    2b98:	1a800304 	addi	r10,r3,12
    2b9c:	1813883a 	mov	r9,r3
    2ba0:	21000504 	addi	r4,r4,20
    2ba4:	1909883a 	add	r4,r3,r4
    2ba8:	49800015 	stw	r6,0(r9)
    2bac:	41800015 	stw	r6,0(r8)
    2bb0:	59800015 	stw	r6,0(r11)
    2bb4:	51800015 	stw	r6,0(r10)
    2bb8:	42000404 	addi	r8,r8,16
    2bbc:	4a400404 	addi	r9,r9,16
    2bc0:	5ac00404 	addi	r11,r11,16
    2bc4:	52800404 	addi	r10,r10,16
    2bc8:	413ff71e 	bne	r8,r4,2ba8 <__alt_mem_VGA_Subsystem_Char_Buf_Subsystem_Onchip_SRAM+0xf7002ba8>
    2bcc:	63000044 	addi	r12,r12,1
    2bd0:	6018913a 	slli	r12,r12,4
    2bd4:	39c003cc 	andi	r7,r7,15
    2bd8:	010000c4 	movi	r4,3
    2bdc:	1b07883a 	add	r3,r3,r12
    2be0:	21c00e2e 	bgeu	r4,r7,2c1c <memset+0x100>
    2be4:	1813883a 	mov	r9,r3
    2be8:	3811883a 	mov	r8,r7
    2bec:	010000c4 	movi	r4,3
    2bf0:	49800015 	stw	r6,0(r9)
    2bf4:	423fff04 	addi	r8,r8,-4
    2bf8:	4a400104 	addi	r9,r9,4
    2bfc:	223ffc36 	bltu	r4,r8,2bf0 <__alt_mem_VGA_Subsystem_Char_Buf_Subsystem_Onchip_SRAM+0xf7002bf0>
    2c00:	393fff04 	addi	r4,r7,-4
    2c04:	2008d0ba 	srli	r4,r4,2
    2c08:	39c000cc 	andi	r7,r7,3
    2c0c:	21000044 	addi	r4,r4,1
    2c10:	2109883a 	add	r4,r4,r4
    2c14:	2109883a 	add	r4,r4,r4
    2c18:	1907883a 	add	r3,r3,r4
    2c1c:	38000526 	beq	r7,zero,2c34 <memset+0x118>
    2c20:	19cf883a 	add	r7,r3,r7
    2c24:	19400005 	stb	r5,0(r3)
    2c28:	18c00044 	addi	r3,r3,1
    2c2c:	38fffd1e 	bne	r7,r3,2c24 <__alt_mem_VGA_Subsystem_Char_Buf_Subsystem_Onchip_SRAM+0xf7002c24>
    2c30:	f800283a 	ret
    2c34:	f800283a 	ret
    2c38:	2007883a 	mov	r3,r4
    2c3c:	300f883a 	mov	r7,r6
    2c40:	003fc706 	br	2b60 <__alt_mem_VGA_Subsystem_Char_Buf_Subsystem_Onchip_SRAM+0xf7002b60>

00002c44 <_realloc_r>:
    2c44:	defff604 	addi	sp,sp,-40
    2c48:	dc800215 	stw	r18,8(sp)
    2c4c:	dfc00915 	stw	ra,36(sp)
    2c50:	df000815 	stw	fp,32(sp)
    2c54:	ddc00715 	stw	r23,28(sp)
    2c58:	dd800615 	stw	r22,24(sp)
    2c5c:	dd400515 	stw	r21,20(sp)
    2c60:	dd000415 	stw	r20,16(sp)
    2c64:	dcc00315 	stw	r19,12(sp)
    2c68:	dc400115 	stw	r17,4(sp)
    2c6c:	dc000015 	stw	r16,0(sp)
    2c70:	3025883a 	mov	r18,r6
    2c74:	2800b726 	beq	r5,zero,2f54 <_realloc_r+0x310>
    2c78:	282b883a 	mov	r21,r5
    2c7c:	2029883a 	mov	r20,r4
    2c80:	0004c600 	call	4c60 <__malloc_lock>
    2c84:	a8bfff17 	ldw	r2,-4(r21)
    2c88:	043fff04 	movi	r16,-4
    2c8c:	90c002c4 	addi	r3,r18,11
    2c90:	01000584 	movi	r4,22
    2c94:	acfffe04 	addi	r19,r21,-8
    2c98:	1420703a 	and	r16,r2,r16
    2c9c:	20c0332e 	bgeu	r4,r3,2d6c <_realloc_r+0x128>
    2ca0:	047ffe04 	movi	r17,-8
    2ca4:	1c62703a 	and	r17,r3,r17
    2ca8:	8807883a 	mov	r3,r17
    2cac:	88005816 	blt	r17,zero,2e10 <_realloc_r+0x1cc>
    2cb0:	8c805736 	bltu	r17,r18,2e10 <_realloc_r+0x1cc>
    2cb4:	80c0300e 	bge	r16,r3,2d78 <_realloc_r+0x134>
    2cb8:	07000074 	movhi	fp,1
    2cbc:	e705f704 	addi	fp,fp,6108
    2cc0:	e1c00217 	ldw	r7,8(fp)
    2cc4:	9c09883a 	add	r4,r19,r16
    2cc8:	22000117 	ldw	r8,4(r4)
    2ccc:	21c06326 	beq	r4,r7,2e5c <_realloc_r+0x218>
    2cd0:	017fff84 	movi	r5,-2
    2cd4:	414a703a 	and	r5,r8,r5
    2cd8:	214b883a 	add	r5,r4,r5
    2cdc:	29800117 	ldw	r6,4(r5)
    2ce0:	3180004c 	andi	r6,r6,1
    2ce4:	30003f26 	beq	r6,zero,2de4 <_realloc_r+0x1a0>
    2ce8:	1080004c 	andi	r2,r2,1
    2cec:	10008326 	beq	r2,zero,2efc <_realloc_r+0x2b8>
    2cf0:	900b883a 	mov	r5,r18
    2cf4:	a009883a 	mov	r4,r20
    2cf8:	0001f880 	call	1f88 <_malloc_r>
    2cfc:	1025883a 	mov	r18,r2
    2d00:	10011e26 	beq	r2,zero,317c <_realloc_r+0x538>
    2d04:	a93fff17 	ldw	r4,-4(r21)
    2d08:	10fffe04 	addi	r3,r2,-8
    2d0c:	00bfff84 	movi	r2,-2
    2d10:	2084703a 	and	r2,r4,r2
    2d14:	9885883a 	add	r2,r19,r2
    2d18:	1880ee26 	beq	r3,r2,30d4 <_realloc_r+0x490>
    2d1c:	81bfff04 	addi	r6,r16,-4
    2d20:	00800904 	movi	r2,36
    2d24:	1180b836 	bltu	r2,r6,3008 <_realloc_r+0x3c4>
    2d28:	00c004c4 	movi	r3,19
    2d2c:	19809636 	bltu	r3,r6,2f88 <_realloc_r+0x344>
    2d30:	9005883a 	mov	r2,r18
    2d34:	a807883a 	mov	r3,r21
    2d38:	19000017 	ldw	r4,0(r3)
    2d3c:	11000015 	stw	r4,0(r2)
    2d40:	19000117 	ldw	r4,4(r3)
    2d44:	11000115 	stw	r4,4(r2)
    2d48:	18c00217 	ldw	r3,8(r3)
    2d4c:	10c00215 	stw	r3,8(r2)
    2d50:	a80b883a 	mov	r5,r21
    2d54:	a009883a 	mov	r4,r20
    2d58:	0003a100 	call	3a10 <_free_r>
    2d5c:	a009883a 	mov	r4,r20
    2d60:	0004d800 	call	4d80 <__malloc_unlock>
    2d64:	9005883a 	mov	r2,r18
    2d68:	00001206 	br	2db4 <_realloc_r+0x170>
    2d6c:	00c00404 	movi	r3,16
    2d70:	1823883a 	mov	r17,r3
    2d74:	003fce06 	br	2cb0 <__alt_mem_VGA_Subsystem_Char_Buf_Subsystem_Onchip_SRAM+0xf7002cb0>
    2d78:	a825883a 	mov	r18,r21
    2d7c:	8445c83a 	sub	r2,r16,r17
    2d80:	00c003c4 	movi	r3,15
    2d84:	18802636 	bltu	r3,r2,2e20 <_realloc_r+0x1dc>
    2d88:	99800117 	ldw	r6,4(r19)
    2d8c:	9c07883a 	add	r3,r19,r16
    2d90:	3180004c 	andi	r6,r6,1
    2d94:	3420b03a 	or	r16,r6,r16
    2d98:	9c000115 	stw	r16,4(r19)
    2d9c:	18800117 	ldw	r2,4(r3)
    2da0:	10800054 	ori	r2,r2,1
    2da4:	18800115 	stw	r2,4(r3)
    2da8:	a009883a 	mov	r4,r20
    2dac:	0004d800 	call	4d80 <__malloc_unlock>
    2db0:	9005883a 	mov	r2,r18
    2db4:	dfc00917 	ldw	ra,36(sp)
    2db8:	df000817 	ldw	fp,32(sp)
    2dbc:	ddc00717 	ldw	r23,28(sp)
    2dc0:	dd800617 	ldw	r22,24(sp)
    2dc4:	dd400517 	ldw	r21,20(sp)
    2dc8:	dd000417 	ldw	r20,16(sp)
    2dcc:	dcc00317 	ldw	r19,12(sp)
    2dd0:	dc800217 	ldw	r18,8(sp)
    2dd4:	dc400117 	ldw	r17,4(sp)
    2dd8:	dc000017 	ldw	r16,0(sp)
    2ddc:	dec00a04 	addi	sp,sp,40
    2de0:	f800283a 	ret
    2de4:	017fff04 	movi	r5,-4
    2de8:	414a703a 	and	r5,r8,r5
    2dec:	814d883a 	add	r6,r16,r5
    2df0:	30c01f16 	blt	r6,r3,2e70 <_realloc_r+0x22c>
    2df4:	20800317 	ldw	r2,12(r4)
    2df8:	20c00217 	ldw	r3,8(r4)
    2dfc:	a825883a 	mov	r18,r21
    2e00:	3021883a 	mov	r16,r6
    2e04:	18800315 	stw	r2,12(r3)
    2e08:	10c00215 	stw	r3,8(r2)
    2e0c:	003fdb06 	br	2d7c <__alt_mem_VGA_Subsystem_Char_Buf_Subsystem_Onchip_SRAM+0xf7002d7c>
    2e10:	00800304 	movi	r2,12
    2e14:	a0800015 	stw	r2,0(r20)
    2e18:	0005883a 	mov	r2,zero
    2e1c:	003fe506 	br	2db4 <__alt_mem_VGA_Subsystem_Char_Buf_Subsystem_Onchip_SRAM+0xf7002db4>
    2e20:	98c00117 	ldw	r3,4(r19)
    2e24:	9c4b883a 	add	r5,r19,r17
    2e28:	11000054 	ori	r4,r2,1
    2e2c:	18c0004c 	andi	r3,r3,1
    2e30:	1c62b03a 	or	r17,r3,r17
    2e34:	9c400115 	stw	r17,4(r19)
    2e38:	29000115 	stw	r4,4(r5)
    2e3c:	2885883a 	add	r2,r5,r2
    2e40:	10c00117 	ldw	r3,4(r2)
    2e44:	29400204 	addi	r5,r5,8
    2e48:	a009883a 	mov	r4,r20
    2e4c:	18c00054 	ori	r3,r3,1
    2e50:	10c00115 	stw	r3,4(r2)
    2e54:	0003a100 	call	3a10 <_free_r>
    2e58:	003fd306 	br	2da8 <__alt_mem_VGA_Subsystem_Char_Buf_Subsystem_Onchip_SRAM+0xf7002da8>
    2e5c:	017fff04 	movi	r5,-4
    2e60:	414a703a 	and	r5,r8,r5
    2e64:	89800404 	addi	r6,r17,16
    2e68:	8151883a 	add	r8,r16,r5
    2e6c:	4180590e 	bge	r8,r6,2fd4 <_realloc_r+0x390>
    2e70:	1080004c 	andi	r2,r2,1
    2e74:	103f9e1e 	bne	r2,zero,2cf0 <__alt_mem_VGA_Subsystem_Char_Buf_Subsystem_Onchip_SRAM+0xf7002cf0>
    2e78:	adbffe17 	ldw	r22,-8(r21)
    2e7c:	00bfff04 	movi	r2,-4
    2e80:	9dadc83a 	sub	r22,r19,r22
    2e84:	b1800117 	ldw	r6,4(r22)
    2e88:	3084703a 	and	r2,r6,r2
    2e8c:	20002026 	beq	r4,zero,2f10 <_realloc_r+0x2cc>
    2e90:	80af883a 	add	r23,r16,r2
    2e94:	b96f883a 	add	r23,r23,r5
    2e98:	21c05f26 	beq	r4,r7,3018 <_realloc_r+0x3d4>
    2e9c:	b8c01c16 	blt	r23,r3,2f10 <_realloc_r+0x2cc>
    2ea0:	20800317 	ldw	r2,12(r4)
    2ea4:	20c00217 	ldw	r3,8(r4)
    2ea8:	81bfff04 	addi	r6,r16,-4
    2eac:	01000904 	movi	r4,36
    2eb0:	18800315 	stw	r2,12(r3)
    2eb4:	10c00215 	stw	r3,8(r2)
    2eb8:	b0c00217 	ldw	r3,8(r22)
    2ebc:	b0800317 	ldw	r2,12(r22)
    2ec0:	b4800204 	addi	r18,r22,8
    2ec4:	18800315 	stw	r2,12(r3)
    2ec8:	10c00215 	stw	r3,8(r2)
    2ecc:	21801b36 	bltu	r4,r6,2f3c <_realloc_r+0x2f8>
    2ed0:	008004c4 	movi	r2,19
    2ed4:	1180352e 	bgeu	r2,r6,2fac <_realloc_r+0x368>
    2ed8:	a8800017 	ldw	r2,0(r21)
    2edc:	b0800215 	stw	r2,8(r22)
    2ee0:	a8800117 	ldw	r2,4(r21)
    2ee4:	b0800315 	stw	r2,12(r22)
    2ee8:	008006c4 	movi	r2,27
    2eec:	11807f36 	bltu	r2,r6,30ec <_realloc_r+0x4a8>
    2ef0:	b0800404 	addi	r2,r22,16
    2ef4:	ad400204 	addi	r21,r21,8
    2ef8:	00002d06 	br	2fb0 <_realloc_r+0x36c>
    2efc:	adbffe17 	ldw	r22,-8(r21)
    2f00:	00bfff04 	movi	r2,-4
    2f04:	9dadc83a 	sub	r22,r19,r22
    2f08:	b1000117 	ldw	r4,4(r22)
    2f0c:	2084703a 	and	r2,r4,r2
    2f10:	b03f7726 	beq	r22,zero,2cf0 <__alt_mem_VGA_Subsystem_Char_Buf_Subsystem_Onchip_SRAM+0xf7002cf0>
    2f14:	80af883a 	add	r23,r16,r2
    2f18:	b8ff7516 	blt	r23,r3,2cf0 <__alt_mem_VGA_Subsystem_Char_Buf_Subsystem_Onchip_SRAM+0xf7002cf0>
    2f1c:	b0800317 	ldw	r2,12(r22)
    2f20:	b0c00217 	ldw	r3,8(r22)
    2f24:	81bfff04 	addi	r6,r16,-4
    2f28:	01000904 	movi	r4,36
    2f2c:	18800315 	stw	r2,12(r3)
    2f30:	10c00215 	stw	r3,8(r2)
    2f34:	b4800204 	addi	r18,r22,8
    2f38:	21bfe52e 	bgeu	r4,r6,2ed0 <__alt_mem_VGA_Subsystem_Char_Buf_Subsystem_Onchip_SRAM+0xf7002ed0>
    2f3c:	a80b883a 	mov	r5,r21
    2f40:	9009883a 	mov	r4,r18
    2f44:	00029c00 	call	29c0 <memmove>
    2f48:	b821883a 	mov	r16,r23
    2f4c:	b027883a 	mov	r19,r22
    2f50:	003f8a06 	br	2d7c <__alt_mem_VGA_Subsystem_Char_Buf_Subsystem_Onchip_SRAM+0xf7002d7c>
    2f54:	300b883a 	mov	r5,r6
    2f58:	dfc00917 	ldw	ra,36(sp)
    2f5c:	df000817 	ldw	fp,32(sp)
    2f60:	ddc00717 	ldw	r23,28(sp)
    2f64:	dd800617 	ldw	r22,24(sp)
    2f68:	dd400517 	ldw	r21,20(sp)
    2f6c:	dd000417 	ldw	r20,16(sp)
    2f70:	dcc00317 	ldw	r19,12(sp)
    2f74:	dc800217 	ldw	r18,8(sp)
    2f78:	dc400117 	ldw	r17,4(sp)
    2f7c:	dc000017 	ldw	r16,0(sp)
    2f80:	dec00a04 	addi	sp,sp,40
    2f84:	0001f881 	jmpi	1f88 <_malloc_r>
    2f88:	a8c00017 	ldw	r3,0(r21)
    2f8c:	90c00015 	stw	r3,0(r18)
    2f90:	a8c00117 	ldw	r3,4(r21)
    2f94:	90c00115 	stw	r3,4(r18)
    2f98:	00c006c4 	movi	r3,27
    2f9c:	19804536 	bltu	r3,r6,30b4 <_realloc_r+0x470>
    2fa0:	90800204 	addi	r2,r18,8
    2fa4:	a8c00204 	addi	r3,r21,8
    2fa8:	003f6306 	br	2d38 <__alt_mem_VGA_Subsystem_Char_Buf_Subsystem_Onchip_SRAM+0xf7002d38>
    2fac:	9005883a 	mov	r2,r18
    2fb0:	a8c00017 	ldw	r3,0(r21)
    2fb4:	b821883a 	mov	r16,r23
    2fb8:	b027883a 	mov	r19,r22
    2fbc:	10c00015 	stw	r3,0(r2)
    2fc0:	a8c00117 	ldw	r3,4(r21)
    2fc4:	10c00115 	stw	r3,4(r2)
    2fc8:	a8c00217 	ldw	r3,8(r21)
    2fcc:	10c00215 	stw	r3,8(r2)
    2fd0:	003f6a06 	br	2d7c <__alt_mem_VGA_Subsystem_Char_Buf_Subsystem_Onchip_SRAM+0xf7002d7c>
    2fd4:	9c67883a 	add	r19,r19,r17
    2fd8:	4445c83a 	sub	r2,r8,r17
    2fdc:	e4c00215 	stw	r19,8(fp)
    2fe0:	10800054 	ori	r2,r2,1
    2fe4:	98800115 	stw	r2,4(r19)
    2fe8:	a8bfff17 	ldw	r2,-4(r21)
    2fec:	a009883a 	mov	r4,r20
    2ff0:	1080004c 	andi	r2,r2,1
    2ff4:	1462b03a 	or	r17,r2,r17
    2ff8:	ac7fff15 	stw	r17,-4(r21)
    2ffc:	0004d800 	call	4d80 <__malloc_unlock>
    3000:	a805883a 	mov	r2,r21
    3004:	003f6b06 	br	2db4 <__alt_mem_VGA_Subsystem_Char_Buf_Subsystem_Onchip_SRAM+0xf7002db4>
    3008:	a80b883a 	mov	r5,r21
    300c:	9009883a 	mov	r4,r18
    3010:	00029c00 	call	29c0 <memmove>
    3014:	003f4e06 	br	2d50 <__alt_mem_VGA_Subsystem_Char_Buf_Subsystem_Onchip_SRAM+0xf7002d50>
    3018:	89000404 	addi	r4,r17,16
    301c:	b93fbc16 	blt	r23,r4,2f10 <__alt_mem_VGA_Subsystem_Char_Buf_Subsystem_Onchip_SRAM+0xf7002f10>
    3020:	b0800317 	ldw	r2,12(r22)
    3024:	b0c00217 	ldw	r3,8(r22)
    3028:	81bfff04 	addi	r6,r16,-4
    302c:	01000904 	movi	r4,36
    3030:	18800315 	stw	r2,12(r3)
    3034:	10c00215 	stw	r3,8(r2)
    3038:	b4800204 	addi	r18,r22,8
    303c:	21804336 	bltu	r4,r6,314c <_realloc_r+0x508>
    3040:	008004c4 	movi	r2,19
    3044:	11803f2e 	bgeu	r2,r6,3144 <_realloc_r+0x500>
    3048:	a8800017 	ldw	r2,0(r21)
    304c:	b0800215 	stw	r2,8(r22)
    3050:	a8800117 	ldw	r2,4(r21)
    3054:	b0800315 	stw	r2,12(r22)
    3058:	008006c4 	movi	r2,27
    305c:	11803f36 	bltu	r2,r6,315c <_realloc_r+0x518>
    3060:	b0800404 	addi	r2,r22,16
    3064:	ad400204 	addi	r21,r21,8
    3068:	a8c00017 	ldw	r3,0(r21)
    306c:	10c00015 	stw	r3,0(r2)
    3070:	a8c00117 	ldw	r3,4(r21)
    3074:	10c00115 	stw	r3,4(r2)
    3078:	a8c00217 	ldw	r3,8(r21)
    307c:	10c00215 	stw	r3,8(r2)
    3080:	b447883a 	add	r3,r22,r17
    3084:	bc45c83a 	sub	r2,r23,r17
    3088:	e0c00215 	stw	r3,8(fp)
    308c:	10800054 	ori	r2,r2,1
    3090:	18800115 	stw	r2,4(r3)
    3094:	b0800117 	ldw	r2,4(r22)
    3098:	a009883a 	mov	r4,r20
    309c:	1080004c 	andi	r2,r2,1
    30a0:	1462b03a 	or	r17,r2,r17
    30a4:	b4400115 	stw	r17,4(r22)
    30a8:	0004d800 	call	4d80 <__malloc_unlock>
    30ac:	9005883a 	mov	r2,r18
    30b0:	003f4006 	br	2db4 <__alt_mem_VGA_Subsystem_Char_Buf_Subsystem_Onchip_SRAM+0xf7002db4>
    30b4:	a8c00217 	ldw	r3,8(r21)
    30b8:	90c00215 	stw	r3,8(r18)
    30bc:	a8c00317 	ldw	r3,12(r21)
    30c0:	90c00315 	stw	r3,12(r18)
    30c4:	30801126 	beq	r6,r2,310c <_realloc_r+0x4c8>
    30c8:	90800404 	addi	r2,r18,16
    30cc:	a8c00404 	addi	r3,r21,16
    30d0:	003f1906 	br	2d38 <__alt_mem_VGA_Subsystem_Char_Buf_Subsystem_Onchip_SRAM+0xf7002d38>
    30d4:	90ffff17 	ldw	r3,-4(r18)
    30d8:	00bfff04 	movi	r2,-4
    30dc:	a825883a 	mov	r18,r21
    30e0:	1884703a 	and	r2,r3,r2
    30e4:	80a1883a 	add	r16,r16,r2
    30e8:	003f2406 	br	2d7c <__alt_mem_VGA_Subsystem_Char_Buf_Subsystem_Onchip_SRAM+0xf7002d7c>
    30ec:	a8800217 	ldw	r2,8(r21)
    30f0:	b0800415 	stw	r2,16(r22)
    30f4:	a8800317 	ldw	r2,12(r21)
    30f8:	b0800515 	stw	r2,20(r22)
    30fc:	31000a26 	beq	r6,r4,3128 <_realloc_r+0x4e4>
    3100:	b0800604 	addi	r2,r22,24
    3104:	ad400404 	addi	r21,r21,16
    3108:	003fa906 	br	2fb0 <__alt_mem_VGA_Subsystem_Char_Buf_Subsystem_Onchip_SRAM+0xf7002fb0>
    310c:	a9000417 	ldw	r4,16(r21)
    3110:	90800604 	addi	r2,r18,24
    3114:	a8c00604 	addi	r3,r21,24
    3118:	91000415 	stw	r4,16(r18)
    311c:	a9000517 	ldw	r4,20(r21)
    3120:	91000515 	stw	r4,20(r18)
    3124:	003f0406 	br	2d38 <__alt_mem_VGA_Subsystem_Char_Buf_Subsystem_Onchip_SRAM+0xf7002d38>
    3128:	a8c00417 	ldw	r3,16(r21)
    312c:	ad400604 	addi	r21,r21,24
    3130:	b0800804 	addi	r2,r22,32
    3134:	b0c00615 	stw	r3,24(r22)
    3138:	a8ffff17 	ldw	r3,-4(r21)
    313c:	b0c00715 	stw	r3,28(r22)
    3140:	003f9b06 	br	2fb0 <__alt_mem_VGA_Subsystem_Char_Buf_Subsystem_Onchip_SRAM+0xf7002fb0>
    3144:	9005883a 	mov	r2,r18
    3148:	003fc706 	br	3068 <__alt_mem_VGA_Subsystem_Char_Buf_Subsystem_Onchip_SRAM+0xf7003068>
    314c:	a80b883a 	mov	r5,r21
    3150:	9009883a 	mov	r4,r18
    3154:	00029c00 	call	29c0 <memmove>
    3158:	003fc906 	br	3080 <__alt_mem_VGA_Subsystem_Char_Buf_Subsystem_Onchip_SRAM+0xf7003080>
    315c:	a8800217 	ldw	r2,8(r21)
    3160:	b0800415 	stw	r2,16(r22)
    3164:	a8800317 	ldw	r2,12(r21)
    3168:	b0800515 	stw	r2,20(r22)
    316c:	31000726 	beq	r6,r4,318c <_realloc_r+0x548>
    3170:	b0800604 	addi	r2,r22,24
    3174:	ad400404 	addi	r21,r21,16
    3178:	003fbb06 	br	3068 <__alt_mem_VGA_Subsystem_Char_Buf_Subsystem_Onchip_SRAM+0xf7003068>
    317c:	a009883a 	mov	r4,r20
    3180:	0004d800 	call	4d80 <__malloc_unlock>
    3184:	0005883a 	mov	r2,zero
    3188:	003f0a06 	br	2db4 <__alt_mem_VGA_Subsystem_Char_Buf_Subsystem_Onchip_SRAM+0xf7002db4>
    318c:	a8c00417 	ldw	r3,16(r21)
    3190:	ad400604 	addi	r21,r21,24
    3194:	b0800804 	addi	r2,r22,32
    3198:	b0c00615 	stw	r3,24(r22)
    319c:	a8ffff17 	ldw	r3,-4(r21)
    31a0:	b0c00715 	stw	r3,28(r22)
    31a4:	003fb006 	br	3068 <__alt_mem_VGA_Subsystem_Char_Buf_Subsystem_Onchip_SRAM+0xf7003068>

000031a8 <_sbrk_r>:
    31a8:	defffd04 	addi	sp,sp,-12
    31ac:	dc000015 	stw	r16,0(sp)
    31b0:	04000074 	movhi	r16,1
    31b4:	dc400115 	stw	r17,4(sp)
    31b8:	84140a04 	addi	r16,r16,20520
    31bc:	2023883a 	mov	r17,r4
    31c0:	2809883a 	mov	r4,r5
    31c4:	dfc00215 	stw	ra,8(sp)
    31c8:	80000015 	stw	zero,0(r16)
    31cc:	00049580 	call	4958 <sbrk>
    31d0:	00ffffc4 	movi	r3,-1
    31d4:	10c00526 	beq	r2,r3,31ec <_sbrk_r+0x44>
    31d8:	dfc00217 	ldw	ra,8(sp)
    31dc:	dc400117 	ldw	r17,4(sp)
    31e0:	dc000017 	ldw	r16,0(sp)
    31e4:	dec00304 	addi	sp,sp,12
    31e8:	f800283a 	ret
    31ec:	80c00017 	ldw	r3,0(r16)
    31f0:	183ff926 	beq	r3,zero,31d8 <__alt_mem_VGA_Subsystem_Char_Buf_Subsystem_Onchip_SRAM+0xf70031d8>
    31f4:	88c00015 	stw	r3,0(r17)
    31f8:	003ff706 	br	31d8 <__alt_mem_VGA_Subsystem_Char_Buf_Subsystem_Onchip_SRAM+0xf70031d8>

000031fc <__sread>:
    31fc:	defffe04 	addi	sp,sp,-8
    3200:	dc000015 	stw	r16,0(sp)
    3204:	2821883a 	mov	r16,r5
    3208:	2940038f 	ldh	r5,14(r5)
    320c:	dfc00115 	stw	ra,4(sp)
    3210:	0003f3c0 	call	3f3c <_read_r>
    3214:	10000716 	blt	r2,zero,3234 <__sread+0x38>
    3218:	80c01417 	ldw	r3,80(r16)
    321c:	1887883a 	add	r3,r3,r2
    3220:	80c01415 	stw	r3,80(r16)
    3224:	dfc00117 	ldw	ra,4(sp)
    3228:	dc000017 	ldw	r16,0(sp)
    322c:	dec00204 	addi	sp,sp,8
    3230:	f800283a 	ret
    3234:	80c0030b 	ldhu	r3,12(r16)
    3238:	18fbffcc 	andi	r3,r3,61439
    323c:	80c0030d 	sth	r3,12(r16)
    3240:	dfc00117 	ldw	ra,4(sp)
    3244:	dc000017 	ldw	r16,0(sp)
    3248:	dec00204 	addi	sp,sp,8
    324c:	f800283a 	ret

00003250 <__seofread>:
    3250:	0005883a 	mov	r2,zero
    3254:	f800283a 	ret

00003258 <__swrite>:
    3258:	2880030b 	ldhu	r2,12(r5)
    325c:	defffb04 	addi	sp,sp,-20
    3260:	dcc00315 	stw	r19,12(sp)
    3264:	dc800215 	stw	r18,8(sp)
    3268:	dc400115 	stw	r17,4(sp)
    326c:	dc000015 	stw	r16,0(sp)
    3270:	dfc00415 	stw	ra,16(sp)
    3274:	10c0400c 	andi	r3,r2,256
    3278:	2821883a 	mov	r16,r5
    327c:	2023883a 	mov	r17,r4
    3280:	3025883a 	mov	r18,r6
    3284:	3827883a 	mov	r19,r7
    3288:	18000526 	beq	r3,zero,32a0 <__swrite+0x48>
    328c:	2940038f 	ldh	r5,14(r5)
    3290:	01c00084 	movi	r7,2
    3294:	000d883a 	mov	r6,zero
    3298:	0003d200 	call	3d20 <_lseek_r>
    329c:	8080030b 	ldhu	r2,12(r16)
    32a0:	8140038f 	ldh	r5,14(r16)
    32a4:	10bbffcc 	andi	r2,r2,61439
    32a8:	980f883a 	mov	r7,r19
    32ac:	900d883a 	mov	r6,r18
    32b0:	8809883a 	mov	r4,r17
    32b4:	8080030d 	sth	r2,12(r16)
    32b8:	dfc00417 	ldw	ra,16(sp)
    32bc:	dcc00317 	ldw	r19,12(sp)
    32c0:	dc800217 	ldw	r18,8(sp)
    32c4:	dc400117 	ldw	r17,4(sp)
    32c8:	dc000017 	ldw	r16,0(sp)
    32cc:	dec00504 	addi	sp,sp,20
    32d0:	00033381 	jmpi	3338 <_write_r>

000032d4 <__sseek>:
    32d4:	defffe04 	addi	sp,sp,-8
    32d8:	dc000015 	stw	r16,0(sp)
    32dc:	2821883a 	mov	r16,r5
    32e0:	2940038f 	ldh	r5,14(r5)
    32e4:	dfc00115 	stw	ra,4(sp)
    32e8:	0003d200 	call	3d20 <_lseek_r>
    32ec:	00ffffc4 	movi	r3,-1
    32f0:	10c00826 	beq	r2,r3,3314 <__sseek+0x40>
    32f4:	80c0030b 	ldhu	r3,12(r16)
    32f8:	80801415 	stw	r2,80(r16)
    32fc:	18c40014 	ori	r3,r3,4096
    3300:	80c0030d 	sth	r3,12(r16)
    3304:	dfc00117 	ldw	ra,4(sp)
    3308:	dc000017 	ldw	r16,0(sp)
    330c:	dec00204 	addi	sp,sp,8
    3310:	f800283a 	ret
    3314:	80c0030b 	ldhu	r3,12(r16)
    3318:	18fbffcc 	andi	r3,r3,61439
    331c:	80c0030d 	sth	r3,12(r16)
    3320:	dfc00117 	ldw	ra,4(sp)
    3324:	dc000017 	ldw	r16,0(sp)
    3328:	dec00204 	addi	sp,sp,8
    332c:	f800283a 	ret

00003330 <__sclose>:
    3330:	2940038f 	ldh	r5,14(r5)
    3334:	00034ec1 	jmpi	34ec <_close_r>

00003338 <_write_r>:
    3338:	defffd04 	addi	sp,sp,-12
    333c:	2805883a 	mov	r2,r5
    3340:	dc000015 	stw	r16,0(sp)
    3344:	04000074 	movhi	r16,1
    3348:	dc400115 	stw	r17,4(sp)
    334c:	300b883a 	mov	r5,r6
    3350:	84140a04 	addi	r16,r16,20520
    3354:	2023883a 	mov	r17,r4
    3358:	380d883a 	mov	r6,r7
    335c:	1009883a 	mov	r4,r2
    3360:	dfc00215 	stw	ra,8(sp)
    3364:	80000015 	stw	zero,0(r16)
    3368:	0004a440 	call	4a44 <write>
    336c:	00ffffc4 	movi	r3,-1
    3370:	10c00526 	beq	r2,r3,3388 <_write_r+0x50>
    3374:	dfc00217 	ldw	ra,8(sp)
    3378:	dc400117 	ldw	r17,4(sp)
    337c:	dc000017 	ldw	r16,0(sp)
    3380:	dec00304 	addi	sp,sp,12
    3384:	f800283a 	ret
    3388:	80c00017 	ldw	r3,0(r16)
    338c:	183ff926 	beq	r3,zero,3374 <__alt_mem_VGA_Subsystem_Char_Buf_Subsystem_Onchip_SRAM+0xf7003374>
    3390:	88c00015 	stw	r3,0(r17)
    3394:	003ff706 	br	3374 <__alt_mem_VGA_Subsystem_Char_Buf_Subsystem_Onchip_SRAM+0xf7003374>

00003398 <__swsetup_r>:
    3398:	00800074 	movhi	r2,1
    339c:	defffd04 	addi	sp,sp,-12
    33a0:	108c4404 	addi	r2,r2,12560
    33a4:	dc400115 	stw	r17,4(sp)
    33a8:	2023883a 	mov	r17,r4
    33ac:	11000017 	ldw	r4,0(r2)
    33b0:	dc000015 	stw	r16,0(sp)
    33b4:	dfc00215 	stw	ra,8(sp)
    33b8:	2821883a 	mov	r16,r5
    33bc:	20000226 	beq	r4,zero,33c8 <__swsetup_r+0x30>
    33c0:	20800e17 	ldw	r2,56(r4)
    33c4:	10003126 	beq	r2,zero,348c <__swsetup_r+0xf4>
    33c8:	8080030b 	ldhu	r2,12(r16)
    33cc:	10c0020c 	andi	r3,r2,8
    33d0:	1009883a 	mov	r4,r2
    33d4:	18000f26 	beq	r3,zero,3414 <__swsetup_r+0x7c>
    33d8:	80c00417 	ldw	r3,16(r16)
    33dc:	18001526 	beq	r3,zero,3434 <__swsetup_r+0x9c>
    33e0:	1100004c 	andi	r4,r2,1
    33e4:	20001c1e 	bne	r4,zero,3458 <__swsetup_r+0xc0>
    33e8:	1080008c 	andi	r2,r2,2
    33ec:	1000291e 	bne	r2,zero,3494 <__swsetup_r+0xfc>
    33f0:	80800517 	ldw	r2,20(r16)
    33f4:	80800215 	stw	r2,8(r16)
    33f8:	18001c26 	beq	r3,zero,346c <__swsetup_r+0xd4>
    33fc:	0005883a 	mov	r2,zero
    3400:	dfc00217 	ldw	ra,8(sp)
    3404:	dc400117 	ldw	r17,4(sp)
    3408:	dc000017 	ldw	r16,0(sp)
    340c:	dec00304 	addi	sp,sp,12
    3410:	f800283a 	ret
    3414:	2080040c 	andi	r2,r4,16
    3418:	10002e26 	beq	r2,zero,34d4 <__swsetup_r+0x13c>
    341c:	2080010c 	andi	r2,r4,4
    3420:	10001e1e 	bne	r2,zero,349c <__swsetup_r+0x104>
    3424:	80c00417 	ldw	r3,16(r16)
    3428:	20800214 	ori	r2,r4,8
    342c:	8080030d 	sth	r2,12(r16)
    3430:	183feb1e 	bne	r3,zero,33e0 <__alt_mem_VGA_Subsystem_Char_Buf_Subsystem_Onchip_SRAM+0xf70033e0>
    3434:	1100a00c 	andi	r4,r2,640
    3438:	01408004 	movi	r5,512
    343c:	217fe826 	beq	r4,r5,33e0 <__alt_mem_VGA_Subsystem_Char_Buf_Subsystem_Onchip_SRAM+0xf70033e0>
    3440:	800b883a 	mov	r5,r16
    3444:	8809883a 	mov	r4,r17
    3448:	0003d800 	call	3d80 <__smakebuf_r>
    344c:	8080030b 	ldhu	r2,12(r16)
    3450:	80c00417 	ldw	r3,16(r16)
    3454:	003fe206 	br	33e0 <__alt_mem_VGA_Subsystem_Char_Buf_Subsystem_Onchip_SRAM+0xf70033e0>
    3458:	80800517 	ldw	r2,20(r16)
    345c:	80000215 	stw	zero,8(r16)
    3460:	0085c83a 	sub	r2,zero,r2
    3464:	80800615 	stw	r2,24(r16)
    3468:	183fe41e 	bne	r3,zero,33fc <__alt_mem_VGA_Subsystem_Char_Buf_Subsystem_Onchip_SRAM+0xf70033fc>
    346c:	80c0030b 	ldhu	r3,12(r16)
    3470:	0005883a 	mov	r2,zero
    3474:	1900200c 	andi	r4,r3,128
    3478:	203fe126 	beq	r4,zero,3400 <__alt_mem_VGA_Subsystem_Char_Buf_Subsystem_Onchip_SRAM+0xf7003400>
    347c:	18c01014 	ori	r3,r3,64
    3480:	80c0030d 	sth	r3,12(r16)
    3484:	00bfffc4 	movi	r2,-1
    3488:	003fdd06 	br	3400 <__alt_mem_VGA_Subsystem_Char_Buf_Subsystem_Onchip_SRAM+0xf7003400>
    348c:	00018f40 	call	18f4 <__sinit>
    3490:	003fcd06 	br	33c8 <__alt_mem_VGA_Subsystem_Char_Buf_Subsystem_Onchip_SRAM+0xf70033c8>
    3494:	0005883a 	mov	r2,zero
    3498:	003fd606 	br	33f4 <__alt_mem_VGA_Subsystem_Char_Buf_Subsystem_Onchip_SRAM+0xf70033f4>
    349c:	81400c17 	ldw	r5,48(r16)
    34a0:	28000626 	beq	r5,zero,34bc <__swsetup_r+0x124>
    34a4:	80801004 	addi	r2,r16,64
    34a8:	28800326 	beq	r5,r2,34b8 <__swsetup_r+0x120>
    34ac:	8809883a 	mov	r4,r17
    34b0:	0003a100 	call	3a10 <_free_r>
    34b4:	8100030b 	ldhu	r4,12(r16)
    34b8:	80000c15 	stw	zero,48(r16)
    34bc:	80c00417 	ldw	r3,16(r16)
    34c0:	00bff6c4 	movi	r2,-37
    34c4:	1108703a 	and	r4,r2,r4
    34c8:	80000115 	stw	zero,4(r16)
    34cc:	80c00015 	stw	r3,0(r16)
    34d0:	003fd506 	br	3428 <__alt_mem_VGA_Subsystem_Char_Buf_Subsystem_Onchip_SRAM+0xf7003428>
    34d4:	00800244 	movi	r2,9
    34d8:	88800015 	stw	r2,0(r17)
    34dc:	20801014 	ori	r2,r4,64
    34e0:	8080030d 	sth	r2,12(r16)
    34e4:	00bfffc4 	movi	r2,-1
    34e8:	003fc506 	br	3400 <__alt_mem_VGA_Subsystem_Char_Buf_Subsystem_Onchip_SRAM+0xf7003400>

000034ec <_close_r>:
    34ec:	defffd04 	addi	sp,sp,-12
    34f0:	dc000015 	stw	r16,0(sp)
    34f4:	04000074 	movhi	r16,1
    34f8:	dc400115 	stw	r17,4(sp)
    34fc:	84140a04 	addi	r16,r16,20520
    3500:	2023883a 	mov	r17,r4
    3504:	2809883a 	mov	r4,r5
    3508:	dfc00215 	stw	ra,8(sp)
    350c:	80000015 	stw	zero,0(r16)
    3510:	000423c0 	call	423c <close>
    3514:	00ffffc4 	movi	r3,-1
    3518:	10c00526 	beq	r2,r3,3530 <_close_r+0x44>
    351c:	dfc00217 	ldw	ra,8(sp)
    3520:	dc400117 	ldw	r17,4(sp)
    3524:	dc000017 	ldw	r16,0(sp)
    3528:	dec00304 	addi	sp,sp,12
    352c:	f800283a 	ret
    3530:	80c00017 	ldw	r3,0(r16)
    3534:	183ff926 	beq	r3,zero,351c <__alt_mem_VGA_Subsystem_Char_Buf_Subsystem_Onchip_SRAM+0xf700351c>
    3538:	88c00015 	stw	r3,0(r17)
    353c:	003ff706 	br	351c <__alt_mem_VGA_Subsystem_Char_Buf_Subsystem_Onchip_SRAM+0xf700351c>

00003540 <_fclose_r>:
    3540:	28003926 	beq	r5,zero,3628 <_fclose_r+0xe8>
    3544:	defffc04 	addi	sp,sp,-16
    3548:	dc400115 	stw	r17,4(sp)
    354c:	dc000015 	stw	r16,0(sp)
    3550:	dfc00315 	stw	ra,12(sp)
    3554:	dc800215 	stw	r18,8(sp)
    3558:	2023883a 	mov	r17,r4
    355c:	2821883a 	mov	r16,r5
    3560:	20000226 	beq	r4,zero,356c <_fclose_r+0x2c>
    3564:	20800e17 	ldw	r2,56(r4)
    3568:	10002726 	beq	r2,zero,3608 <_fclose_r+0xc8>
    356c:	8080030f 	ldh	r2,12(r16)
    3570:	1000071e 	bne	r2,zero,3590 <_fclose_r+0x50>
    3574:	0005883a 	mov	r2,zero
    3578:	dfc00317 	ldw	ra,12(sp)
    357c:	dc800217 	ldw	r18,8(sp)
    3580:	dc400117 	ldw	r17,4(sp)
    3584:	dc000017 	ldw	r16,0(sp)
    3588:	dec00404 	addi	sp,sp,16
    358c:	f800283a 	ret
    3590:	800b883a 	mov	r5,r16
    3594:	8809883a 	mov	r4,r17
    3598:	00036440 	call	3644 <__sflush_r>
    359c:	1025883a 	mov	r18,r2
    35a0:	80800b17 	ldw	r2,44(r16)
    35a4:	10000426 	beq	r2,zero,35b8 <_fclose_r+0x78>
    35a8:	81400717 	ldw	r5,28(r16)
    35ac:	8809883a 	mov	r4,r17
    35b0:	103ee83a 	callr	r2
    35b4:	10001616 	blt	r2,zero,3610 <_fclose_r+0xd0>
    35b8:	8080030b 	ldhu	r2,12(r16)
    35bc:	1080200c 	andi	r2,r2,128
    35c0:	1000151e 	bne	r2,zero,3618 <_fclose_r+0xd8>
    35c4:	81400c17 	ldw	r5,48(r16)
    35c8:	28000526 	beq	r5,zero,35e0 <_fclose_r+0xa0>
    35cc:	80801004 	addi	r2,r16,64
    35d0:	28800226 	beq	r5,r2,35dc <_fclose_r+0x9c>
    35d4:	8809883a 	mov	r4,r17
    35d8:	0003a100 	call	3a10 <_free_r>
    35dc:	80000c15 	stw	zero,48(r16)
    35e0:	81401117 	ldw	r5,68(r16)
    35e4:	28000326 	beq	r5,zero,35f4 <_fclose_r+0xb4>
    35e8:	8809883a 	mov	r4,r17
    35ec:	0003a100 	call	3a10 <_free_r>
    35f0:	80001115 	stw	zero,68(r16)
    35f4:	00019040 	call	1904 <__sfp_lock_acquire>
    35f8:	8000030d 	sth	zero,12(r16)
    35fc:	00019080 	call	1908 <__sfp_lock_release>
    3600:	9005883a 	mov	r2,r18
    3604:	003fdc06 	br	3578 <__alt_mem_VGA_Subsystem_Char_Buf_Subsystem_Onchip_SRAM+0xf7003578>
    3608:	00018f40 	call	18f4 <__sinit>
    360c:	003fd706 	br	356c <__alt_mem_VGA_Subsystem_Char_Buf_Subsystem_Onchip_SRAM+0xf700356c>
    3610:	04bfffc4 	movi	r18,-1
    3614:	003fe806 	br	35b8 <__alt_mem_VGA_Subsystem_Char_Buf_Subsystem_Onchip_SRAM+0xf70035b8>
    3618:	81400417 	ldw	r5,16(r16)
    361c:	8809883a 	mov	r4,r17
    3620:	0003a100 	call	3a10 <_free_r>
    3624:	003fe706 	br	35c4 <__alt_mem_VGA_Subsystem_Char_Buf_Subsystem_Onchip_SRAM+0xf70035c4>
    3628:	0005883a 	mov	r2,zero
    362c:	f800283a 	ret

00003630 <fclose>:
    3630:	00800074 	movhi	r2,1
    3634:	108c4404 	addi	r2,r2,12560
    3638:	200b883a 	mov	r5,r4
    363c:	11000017 	ldw	r4,0(r2)
    3640:	00035401 	jmpi	3540 <_fclose_r>

00003644 <__sflush_r>:
    3644:	2880030b 	ldhu	r2,12(r5)
    3648:	defffb04 	addi	sp,sp,-20
    364c:	dcc00315 	stw	r19,12(sp)
    3650:	dc400115 	stw	r17,4(sp)
    3654:	dfc00415 	stw	ra,16(sp)
    3658:	dc800215 	stw	r18,8(sp)
    365c:	dc000015 	stw	r16,0(sp)
    3660:	10c0020c 	andi	r3,r2,8
    3664:	2823883a 	mov	r17,r5
    3668:	2027883a 	mov	r19,r4
    366c:	1800311e 	bne	r3,zero,3734 <__sflush_r+0xf0>
    3670:	28c00117 	ldw	r3,4(r5)
    3674:	10820014 	ori	r2,r2,2048
    3678:	2880030d 	sth	r2,12(r5)
    367c:	00c04b0e 	bge	zero,r3,37ac <__sflush_r+0x168>
    3680:	8a000a17 	ldw	r8,40(r17)
    3684:	40002326 	beq	r8,zero,3714 <__sflush_r+0xd0>
    3688:	9c000017 	ldw	r16,0(r19)
    368c:	10c4000c 	andi	r3,r2,4096
    3690:	98000015 	stw	zero,0(r19)
    3694:	18004826 	beq	r3,zero,37b8 <__sflush_r+0x174>
    3698:	89801417 	ldw	r6,80(r17)
    369c:	10c0010c 	andi	r3,r2,4
    36a0:	18000626 	beq	r3,zero,36bc <__sflush_r+0x78>
    36a4:	88c00117 	ldw	r3,4(r17)
    36a8:	88800c17 	ldw	r2,48(r17)
    36ac:	30cdc83a 	sub	r6,r6,r3
    36b0:	10000226 	beq	r2,zero,36bc <__sflush_r+0x78>
    36b4:	88800f17 	ldw	r2,60(r17)
    36b8:	308dc83a 	sub	r6,r6,r2
    36bc:	89400717 	ldw	r5,28(r17)
    36c0:	000f883a 	mov	r7,zero
    36c4:	9809883a 	mov	r4,r19
    36c8:	403ee83a 	callr	r8
    36cc:	00ffffc4 	movi	r3,-1
    36d0:	10c04426 	beq	r2,r3,37e4 <__sflush_r+0x1a0>
    36d4:	88c0030b 	ldhu	r3,12(r17)
    36d8:	89000417 	ldw	r4,16(r17)
    36dc:	88000115 	stw	zero,4(r17)
    36e0:	197dffcc 	andi	r5,r3,63487
    36e4:	8940030d 	sth	r5,12(r17)
    36e8:	89000015 	stw	r4,0(r17)
    36ec:	18c4000c 	andi	r3,r3,4096
    36f0:	18002c1e 	bne	r3,zero,37a4 <__sflush_r+0x160>
    36f4:	89400c17 	ldw	r5,48(r17)
    36f8:	9c000015 	stw	r16,0(r19)
    36fc:	28000526 	beq	r5,zero,3714 <__sflush_r+0xd0>
    3700:	88801004 	addi	r2,r17,64
    3704:	28800226 	beq	r5,r2,3710 <__sflush_r+0xcc>
    3708:	9809883a 	mov	r4,r19
    370c:	0003a100 	call	3a10 <_free_r>
    3710:	88000c15 	stw	zero,48(r17)
    3714:	0005883a 	mov	r2,zero
    3718:	dfc00417 	ldw	ra,16(sp)
    371c:	dcc00317 	ldw	r19,12(sp)
    3720:	dc800217 	ldw	r18,8(sp)
    3724:	dc400117 	ldw	r17,4(sp)
    3728:	dc000017 	ldw	r16,0(sp)
    372c:	dec00504 	addi	sp,sp,20
    3730:	f800283a 	ret
    3734:	2c800417 	ldw	r18,16(r5)
    3738:	903ff626 	beq	r18,zero,3714 <__alt_mem_VGA_Subsystem_Char_Buf_Subsystem_Onchip_SRAM+0xf7003714>
    373c:	2c000017 	ldw	r16,0(r5)
    3740:	108000cc 	andi	r2,r2,3
    3744:	2c800015 	stw	r18,0(r5)
    3748:	84a1c83a 	sub	r16,r16,r18
    374c:	1000131e 	bne	r2,zero,379c <__sflush_r+0x158>
    3750:	28800517 	ldw	r2,20(r5)
    3754:	88800215 	stw	r2,8(r17)
    3758:	04000316 	blt	zero,r16,3768 <__sflush_r+0x124>
    375c:	003fed06 	br	3714 <__alt_mem_VGA_Subsystem_Char_Buf_Subsystem_Onchip_SRAM+0xf7003714>
    3760:	90a5883a 	add	r18,r18,r2
    3764:	043feb0e 	bge	zero,r16,3714 <__alt_mem_VGA_Subsystem_Char_Buf_Subsystem_Onchip_SRAM+0xf7003714>
    3768:	88800917 	ldw	r2,36(r17)
    376c:	89400717 	ldw	r5,28(r17)
    3770:	800f883a 	mov	r7,r16
    3774:	900d883a 	mov	r6,r18
    3778:	9809883a 	mov	r4,r19
    377c:	103ee83a 	callr	r2
    3780:	80a1c83a 	sub	r16,r16,r2
    3784:	00bff616 	blt	zero,r2,3760 <__alt_mem_VGA_Subsystem_Char_Buf_Subsystem_Onchip_SRAM+0xf7003760>
    3788:	88c0030b 	ldhu	r3,12(r17)
    378c:	00bfffc4 	movi	r2,-1
    3790:	18c01014 	ori	r3,r3,64
    3794:	88c0030d 	sth	r3,12(r17)
    3798:	003fdf06 	br	3718 <__alt_mem_VGA_Subsystem_Char_Buf_Subsystem_Onchip_SRAM+0xf7003718>
    379c:	0005883a 	mov	r2,zero
    37a0:	003fec06 	br	3754 <__alt_mem_VGA_Subsystem_Char_Buf_Subsystem_Onchip_SRAM+0xf7003754>
    37a4:	88801415 	stw	r2,80(r17)
    37a8:	003fd206 	br	36f4 <__alt_mem_VGA_Subsystem_Char_Buf_Subsystem_Onchip_SRAM+0xf70036f4>
    37ac:	28c00f17 	ldw	r3,60(r5)
    37b0:	00ffb316 	blt	zero,r3,3680 <__alt_mem_VGA_Subsystem_Char_Buf_Subsystem_Onchip_SRAM+0xf7003680>
    37b4:	003fd706 	br	3714 <__alt_mem_VGA_Subsystem_Char_Buf_Subsystem_Onchip_SRAM+0xf7003714>
    37b8:	89400717 	ldw	r5,28(r17)
    37bc:	000d883a 	mov	r6,zero
    37c0:	01c00044 	movi	r7,1
    37c4:	9809883a 	mov	r4,r19
    37c8:	403ee83a 	callr	r8
    37cc:	100d883a 	mov	r6,r2
    37d0:	00bfffc4 	movi	r2,-1
    37d4:	30801426 	beq	r6,r2,3828 <__sflush_r+0x1e4>
    37d8:	8880030b 	ldhu	r2,12(r17)
    37dc:	8a000a17 	ldw	r8,40(r17)
    37e0:	003fae06 	br	369c <__alt_mem_VGA_Subsystem_Char_Buf_Subsystem_Onchip_SRAM+0xf700369c>
    37e4:	98c00017 	ldw	r3,0(r19)
    37e8:	183fba26 	beq	r3,zero,36d4 <__alt_mem_VGA_Subsystem_Char_Buf_Subsystem_Onchip_SRAM+0xf70036d4>
    37ec:	01000744 	movi	r4,29
    37f0:	19000626 	beq	r3,r4,380c <__sflush_r+0x1c8>
    37f4:	01000584 	movi	r4,22
    37f8:	19000426 	beq	r3,r4,380c <__sflush_r+0x1c8>
    37fc:	88c0030b 	ldhu	r3,12(r17)
    3800:	18c01014 	ori	r3,r3,64
    3804:	88c0030d 	sth	r3,12(r17)
    3808:	003fc306 	br	3718 <__alt_mem_VGA_Subsystem_Char_Buf_Subsystem_Onchip_SRAM+0xf7003718>
    380c:	8880030b 	ldhu	r2,12(r17)
    3810:	88c00417 	ldw	r3,16(r17)
    3814:	88000115 	stw	zero,4(r17)
    3818:	10bdffcc 	andi	r2,r2,63487
    381c:	8880030d 	sth	r2,12(r17)
    3820:	88c00015 	stw	r3,0(r17)
    3824:	003fb306 	br	36f4 <__alt_mem_VGA_Subsystem_Char_Buf_Subsystem_Onchip_SRAM+0xf70036f4>
    3828:	98800017 	ldw	r2,0(r19)
    382c:	103fea26 	beq	r2,zero,37d8 <__alt_mem_VGA_Subsystem_Char_Buf_Subsystem_Onchip_SRAM+0xf70037d8>
    3830:	00c00744 	movi	r3,29
    3834:	10c00226 	beq	r2,r3,3840 <__sflush_r+0x1fc>
    3838:	00c00584 	movi	r3,22
    383c:	10c0031e 	bne	r2,r3,384c <__sflush_r+0x208>
    3840:	9c000015 	stw	r16,0(r19)
    3844:	0005883a 	mov	r2,zero
    3848:	003fb306 	br	3718 <__alt_mem_VGA_Subsystem_Char_Buf_Subsystem_Onchip_SRAM+0xf7003718>
    384c:	88c0030b 	ldhu	r3,12(r17)
    3850:	3005883a 	mov	r2,r6
    3854:	18c01014 	ori	r3,r3,64
    3858:	88c0030d 	sth	r3,12(r17)
    385c:	003fae06 	br	3718 <__alt_mem_VGA_Subsystem_Char_Buf_Subsystem_Onchip_SRAM+0xf7003718>

00003860 <_fflush_r>:
    3860:	defffd04 	addi	sp,sp,-12
    3864:	dc000115 	stw	r16,4(sp)
    3868:	dfc00215 	stw	ra,8(sp)
    386c:	2021883a 	mov	r16,r4
    3870:	20000226 	beq	r4,zero,387c <_fflush_r+0x1c>
    3874:	20800e17 	ldw	r2,56(r4)
    3878:	10000c26 	beq	r2,zero,38ac <_fflush_r+0x4c>
    387c:	2880030f 	ldh	r2,12(r5)
    3880:	1000051e 	bne	r2,zero,3898 <_fflush_r+0x38>
    3884:	0005883a 	mov	r2,zero
    3888:	dfc00217 	ldw	ra,8(sp)
    388c:	dc000117 	ldw	r16,4(sp)
    3890:	dec00304 	addi	sp,sp,12
    3894:	f800283a 	ret
    3898:	8009883a 	mov	r4,r16
    389c:	dfc00217 	ldw	ra,8(sp)
    38a0:	dc000117 	ldw	r16,4(sp)
    38a4:	dec00304 	addi	sp,sp,12
    38a8:	00036441 	jmpi	3644 <__sflush_r>
    38ac:	d9400015 	stw	r5,0(sp)
    38b0:	00018f40 	call	18f4 <__sinit>
    38b4:	d9400017 	ldw	r5,0(sp)
    38b8:	003ff006 	br	387c <__alt_mem_VGA_Subsystem_Char_Buf_Subsystem_Onchip_SRAM+0xf700387c>

000038bc <fflush>:
    38bc:	20000526 	beq	r4,zero,38d4 <fflush+0x18>
    38c0:	00800074 	movhi	r2,1
    38c4:	108c4404 	addi	r2,r2,12560
    38c8:	200b883a 	mov	r5,r4
    38cc:	11000017 	ldw	r4,0(r2)
    38d0:	00038601 	jmpi	3860 <_fflush_r>
    38d4:	00800074 	movhi	r2,1
    38d8:	108c4304 	addi	r2,r2,12556
    38dc:	11000017 	ldw	r4,0(r2)
    38e0:	01400034 	movhi	r5,0
    38e4:	294e1804 	addi	r5,r5,14432
    38e8:	0001ec41 	jmpi	1ec4 <_fwalk_reent>

000038ec <_malloc_trim_r>:
    38ec:	defffb04 	addi	sp,sp,-20
    38f0:	dcc00315 	stw	r19,12(sp)
    38f4:	04c00074 	movhi	r19,1
    38f8:	dc800215 	stw	r18,8(sp)
    38fc:	dc400115 	stw	r17,4(sp)
    3900:	dc000015 	stw	r16,0(sp)
    3904:	dfc00415 	stw	ra,16(sp)
    3908:	2821883a 	mov	r16,r5
    390c:	9cc5f704 	addi	r19,r19,6108
    3910:	2025883a 	mov	r18,r4
    3914:	0004c600 	call	4c60 <__malloc_lock>
    3918:	98800217 	ldw	r2,8(r19)
    391c:	14400117 	ldw	r17,4(r2)
    3920:	00bfff04 	movi	r2,-4
    3924:	88a2703a 	and	r17,r17,r2
    3928:	8c21c83a 	sub	r16,r17,r16
    392c:	8403fbc4 	addi	r16,r16,4079
    3930:	8020d33a 	srli	r16,r16,12
    3934:	0083ffc4 	movi	r2,4095
    3938:	843fffc4 	addi	r16,r16,-1
    393c:	8020933a 	slli	r16,r16,12
    3940:	1400060e 	bge	r2,r16,395c <_malloc_trim_r+0x70>
    3944:	000b883a 	mov	r5,zero
    3948:	9009883a 	mov	r4,r18
    394c:	00031a80 	call	31a8 <_sbrk_r>
    3950:	98c00217 	ldw	r3,8(r19)
    3954:	1c47883a 	add	r3,r3,r17
    3958:	10c00a26 	beq	r2,r3,3984 <_malloc_trim_r+0x98>
    395c:	9009883a 	mov	r4,r18
    3960:	0004d800 	call	4d80 <__malloc_unlock>
    3964:	0005883a 	mov	r2,zero
    3968:	dfc00417 	ldw	ra,16(sp)
    396c:	dcc00317 	ldw	r19,12(sp)
    3970:	dc800217 	ldw	r18,8(sp)
    3974:	dc400117 	ldw	r17,4(sp)
    3978:	dc000017 	ldw	r16,0(sp)
    397c:	dec00504 	addi	sp,sp,20
    3980:	f800283a 	ret
    3984:	040bc83a 	sub	r5,zero,r16
    3988:	9009883a 	mov	r4,r18
    398c:	00031a80 	call	31a8 <_sbrk_r>
    3990:	00ffffc4 	movi	r3,-1
    3994:	10c00d26 	beq	r2,r3,39cc <_malloc_trim_r+0xe0>
    3998:	00c00074 	movhi	r3,1
    399c:	18d42b04 	addi	r3,r3,20652
    39a0:	18800017 	ldw	r2,0(r3)
    39a4:	99000217 	ldw	r4,8(r19)
    39a8:	8c23c83a 	sub	r17,r17,r16
    39ac:	8c400054 	ori	r17,r17,1
    39b0:	1421c83a 	sub	r16,r2,r16
    39b4:	24400115 	stw	r17,4(r4)
    39b8:	9009883a 	mov	r4,r18
    39bc:	1c000015 	stw	r16,0(r3)
    39c0:	0004d800 	call	4d80 <__malloc_unlock>
    39c4:	00800044 	movi	r2,1
    39c8:	003fe706 	br	3968 <__alt_mem_VGA_Subsystem_Char_Buf_Subsystem_Onchip_SRAM+0xf7003968>
    39cc:	000b883a 	mov	r5,zero
    39d0:	9009883a 	mov	r4,r18
    39d4:	00031a80 	call	31a8 <_sbrk_r>
    39d8:	99000217 	ldw	r4,8(r19)
    39dc:	014003c4 	movi	r5,15
    39e0:	1107c83a 	sub	r3,r2,r4
    39e4:	28ffdd0e 	bge	r5,r3,395c <__alt_mem_VGA_Subsystem_Char_Buf_Subsystem_Onchip_SRAM+0xf700395c>
    39e8:	01400074 	movhi	r5,1
    39ec:	294c4504 	addi	r5,r5,12564
    39f0:	29400017 	ldw	r5,0(r5)
    39f4:	18c00054 	ori	r3,r3,1
    39f8:	20c00115 	stw	r3,4(r4)
    39fc:	00c00074 	movhi	r3,1
    3a00:	1145c83a 	sub	r2,r2,r5
    3a04:	18d42b04 	addi	r3,r3,20652
    3a08:	18800015 	stw	r2,0(r3)
    3a0c:	003fd306 	br	395c <__alt_mem_VGA_Subsystem_Char_Buf_Subsystem_Onchip_SRAM+0xf700395c>

00003a10 <_free_r>:
    3a10:	28004126 	beq	r5,zero,3b18 <_free_r+0x108>
    3a14:	defffd04 	addi	sp,sp,-12
    3a18:	dc400115 	stw	r17,4(sp)
    3a1c:	dc000015 	stw	r16,0(sp)
    3a20:	2023883a 	mov	r17,r4
    3a24:	2821883a 	mov	r16,r5
    3a28:	dfc00215 	stw	ra,8(sp)
    3a2c:	0004c600 	call	4c60 <__malloc_lock>
    3a30:	81ffff17 	ldw	r7,-4(r16)
    3a34:	00bfff84 	movi	r2,-2
    3a38:	01000074 	movhi	r4,1
    3a3c:	81bffe04 	addi	r6,r16,-8
    3a40:	3884703a 	and	r2,r7,r2
    3a44:	2105f704 	addi	r4,r4,6108
    3a48:	308b883a 	add	r5,r6,r2
    3a4c:	2a400117 	ldw	r9,4(r5)
    3a50:	22000217 	ldw	r8,8(r4)
    3a54:	00ffff04 	movi	r3,-4
    3a58:	48c6703a 	and	r3,r9,r3
    3a5c:	2a005726 	beq	r5,r8,3bbc <_free_r+0x1ac>
    3a60:	28c00115 	stw	r3,4(r5)
    3a64:	39c0004c 	andi	r7,r7,1
    3a68:	3800091e 	bne	r7,zero,3a90 <_free_r+0x80>
    3a6c:	823ffe17 	ldw	r8,-8(r16)
    3a70:	22400204 	addi	r9,r4,8
    3a74:	320dc83a 	sub	r6,r6,r8
    3a78:	31c00217 	ldw	r7,8(r6)
    3a7c:	1205883a 	add	r2,r2,r8
    3a80:	3a406526 	beq	r7,r9,3c18 <_free_r+0x208>
    3a84:	32000317 	ldw	r8,12(r6)
    3a88:	3a000315 	stw	r8,12(r7)
    3a8c:	41c00215 	stw	r7,8(r8)
    3a90:	28cf883a 	add	r7,r5,r3
    3a94:	39c00117 	ldw	r7,4(r7)
    3a98:	39c0004c 	andi	r7,r7,1
    3a9c:	38003a26 	beq	r7,zero,3b88 <_free_r+0x178>
    3aa0:	10c00054 	ori	r3,r2,1
    3aa4:	30c00115 	stw	r3,4(r6)
    3aa8:	3087883a 	add	r3,r6,r2
    3aac:	18800015 	stw	r2,0(r3)
    3ab0:	00c07fc4 	movi	r3,511
    3ab4:	18801936 	bltu	r3,r2,3b1c <_free_r+0x10c>
    3ab8:	1004d0fa 	srli	r2,r2,3
    3abc:	01c00044 	movi	r7,1
    3ac0:	21400117 	ldw	r5,4(r4)
    3ac4:	10c00044 	addi	r3,r2,1
    3ac8:	18c7883a 	add	r3,r3,r3
    3acc:	1005d0ba 	srai	r2,r2,2
    3ad0:	18c7883a 	add	r3,r3,r3
    3ad4:	18c7883a 	add	r3,r3,r3
    3ad8:	1907883a 	add	r3,r3,r4
    3adc:	3884983a 	sll	r2,r7,r2
    3ae0:	19c00017 	ldw	r7,0(r3)
    3ae4:	1a3ffe04 	addi	r8,r3,-8
    3ae8:	1144b03a 	or	r2,r2,r5
    3aec:	32000315 	stw	r8,12(r6)
    3af0:	31c00215 	stw	r7,8(r6)
    3af4:	20800115 	stw	r2,4(r4)
    3af8:	19800015 	stw	r6,0(r3)
    3afc:	39800315 	stw	r6,12(r7)
    3b00:	8809883a 	mov	r4,r17
    3b04:	dfc00217 	ldw	ra,8(sp)
    3b08:	dc400117 	ldw	r17,4(sp)
    3b0c:	dc000017 	ldw	r16,0(sp)
    3b10:	dec00304 	addi	sp,sp,12
    3b14:	0004d801 	jmpi	4d80 <__malloc_unlock>
    3b18:	f800283a 	ret
    3b1c:	100ad27a 	srli	r5,r2,9
    3b20:	00c00104 	movi	r3,4
    3b24:	19404a36 	bltu	r3,r5,3c50 <_free_r+0x240>
    3b28:	100ad1ba 	srli	r5,r2,6
    3b2c:	28c00e44 	addi	r3,r5,57
    3b30:	18c7883a 	add	r3,r3,r3
    3b34:	29400e04 	addi	r5,r5,56
    3b38:	18c7883a 	add	r3,r3,r3
    3b3c:	18c7883a 	add	r3,r3,r3
    3b40:	1909883a 	add	r4,r3,r4
    3b44:	20c00017 	ldw	r3,0(r4)
    3b48:	01c00074 	movhi	r7,1
    3b4c:	213ffe04 	addi	r4,r4,-8
    3b50:	39c5f704 	addi	r7,r7,6108
    3b54:	20c04426 	beq	r4,r3,3c68 <_free_r+0x258>
    3b58:	01ffff04 	movi	r7,-4
    3b5c:	19400117 	ldw	r5,4(r3)
    3b60:	29ca703a 	and	r5,r5,r7
    3b64:	1140022e 	bgeu	r2,r5,3b70 <_free_r+0x160>
    3b68:	18c00217 	ldw	r3,8(r3)
    3b6c:	20fffb1e 	bne	r4,r3,3b5c <__alt_mem_VGA_Subsystem_Char_Buf_Subsystem_Onchip_SRAM+0xf7003b5c>
    3b70:	19000317 	ldw	r4,12(r3)
    3b74:	31000315 	stw	r4,12(r6)
    3b78:	30c00215 	stw	r3,8(r6)
    3b7c:	21800215 	stw	r6,8(r4)
    3b80:	19800315 	stw	r6,12(r3)
    3b84:	003fde06 	br	3b00 <__alt_mem_VGA_Subsystem_Char_Buf_Subsystem_Onchip_SRAM+0xf7003b00>
    3b88:	29c00217 	ldw	r7,8(r5)
    3b8c:	10c5883a 	add	r2,r2,r3
    3b90:	00c00074 	movhi	r3,1
    3b94:	18c5f904 	addi	r3,r3,6116
    3b98:	38c03b26 	beq	r7,r3,3c88 <_free_r+0x278>
    3b9c:	2a000317 	ldw	r8,12(r5)
    3ba0:	11400054 	ori	r5,r2,1
    3ba4:	3087883a 	add	r3,r6,r2
    3ba8:	3a000315 	stw	r8,12(r7)
    3bac:	41c00215 	stw	r7,8(r8)
    3bb0:	31400115 	stw	r5,4(r6)
    3bb4:	18800015 	stw	r2,0(r3)
    3bb8:	003fbd06 	br	3ab0 <__alt_mem_VGA_Subsystem_Char_Buf_Subsystem_Onchip_SRAM+0xf7003ab0>
    3bbc:	39c0004c 	andi	r7,r7,1
    3bc0:	10c5883a 	add	r2,r2,r3
    3bc4:	3800071e 	bne	r7,zero,3be4 <_free_r+0x1d4>
    3bc8:	81fffe17 	ldw	r7,-8(r16)
    3bcc:	31cdc83a 	sub	r6,r6,r7
    3bd0:	30c00317 	ldw	r3,12(r6)
    3bd4:	31400217 	ldw	r5,8(r6)
    3bd8:	11c5883a 	add	r2,r2,r7
    3bdc:	28c00315 	stw	r3,12(r5)
    3be0:	19400215 	stw	r5,8(r3)
    3be4:	10c00054 	ori	r3,r2,1
    3be8:	30c00115 	stw	r3,4(r6)
    3bec:	00c00074 	movhi	r3,1
    3bf0:	18cc4604 	addi	r3,r3,12568
    3bf4:	18c00017 	ldw	r3,0(r3)
    3bf8:	21800215 	stw	r6,8(r4)
    3bfc:	10ffc036 	bltu	r2,r3,3b00 <__alt_mem_VGA_Subsystem_Char_Buf_Subsystem_Onchip_SRAM+0xf7003b00>
    3c00:	00800074 	movhi	r2,1
    3c04:	10940904 	addi	r2,r2,20516
    3c08:	11400017 	ldw	r5,0(r2)
    3c0c:	8809883a 	mov	r4,r17
    3c10:	00038ec0 	call	38ec <_malloc_trim_r>
    3c14:	003fba06 	br	3b00 <__alt_mem_VGA_Subsystem_Char_Buf_Subsystem_Onchip_SRAM+0xf7003b00>
    3c18:	28c9883a 	add	r4,r5,r3
    3c1c:	21000117 	ldw	r4,4(r4)
    3c20:	2100004c 	andi	r4,r4,1
    3c24:	2000391e 	bne	r4,zero,3d0c <_free_r+0x2fc>
    3c28:	29c00217 	ldw	r7,8(r5)
    3c2c:	29000317 	ldw	r4,12(r5)
    3c30:	1885883a 	add	r2,r3,r2
    3c34:	10c00054 	ori	r3,r2,1
    3c38:	39000315 	stw	r4,12(r7)
    3c3c:	21c00215 	stw	r7,8(r4)
    3c40:	30c00115 	stw	r3,4(r6)
    3c44:	308d883a 	add	r6,r6,r2
    3c48:	30800015 	stw	r2,0(r6)
    3c4c:	003fac06 	br	3b00 <__alt_mem_VGA_Subsystem_Char_Buf_Subsystem_Onchip_SRAM+0xf7003b00>
    3c50:	00c00504 	movi	r3,20
    3c54:	19401536 	bltu	r3,r5,3cac <_free_r+0x29c>
    3c58:	28c01704 	addi	r3,r5,92
    3c5c:	18c7883a 	add	r3,r3,r3
    3c60:	294016c4 	addi	r5,r5,91
    3c64:	003fb406 	br	3b38 <__alt_mem_VGA_Subsystem_Char_Buf_Subsystem_Onchip_SRAM+0xf7003b38>
    3c68:	280bd0ba 	srai	r5,r5,2
    3c6c:	00c00044 	movi	r3,1
    3c70:	38800117 	ldw	r2,4(r7)
    3c74:	194a983a 	sll	r5,r3,r5
    3c78:	2007883a 	mov	r3,r4
    3c7c:	2884b03a 	or	r2,r5,r2
    3c80:	38800115 	stw	r2,4(r7)
    3c84:	003fbb06 	br	3b74 <__alt_mem_VGA_Subsystem_Char_Buf_Subsystem_Onchip_SRAM+0xf7003b74>
    3c88:	21800515 	stw	r6,20(r4)
    3c8c:	21800415 	stw	r6,16(r4)
    3c90:	10c00054 	ori	r3,r2,1
    3c94:	31c00315 	stw	r7,12(r6)
    3c98:	31c00215 	stw	r7,8(r6)
    3c9c:	30c00115 	stw	r3,4(r6)
    3ca0:	308d883a 	add	r6,r6,r2
    3ca4:	30800015 	stw	r2,0(r6)
    3ca8:	003f9506 	br	3b00 <__alt_mem_VGA_Subsystem_Char_Buf_Subsystem_Onchip_SRAM+0xf7003b00>
    3cac:	00c01504 	movi	r3,84
    3cb0:	19400536 	bltu	r3,r5,3cc8 <_free_r+0x2b8>
    3cb4:	100ad33a 	srli	r5,r2,12
    3cb8:	28c01bc4 	addi	r3,r5,111
    3cbc:	18c7883a 	add	r3,r3,r3
    3cc0:	29401b84 	addi	r5,r5,110
    3cc4:	003f9c06 	br	3b38 <__alt_mem_VGA_Subsystem_Char_Buf_Subsystem_Onchip_SRAM+0xf7003b38>
    3cc8:	00c05504 	movi	r3,340
    3ccc:	19400536 	bltu	r3,r5,3ce4 <_free_r+0x2d4>
    3cd0:	100ad3fa 	srli	r5,r2,15
    3cd4:	28c01e04 	addi	r3,r5,120
    3cd8:	18c7883a 	add	r3,r3,r3
    3cdc:	29401dc4 	addi	r5,r5,119
    3ce0:	003f9506 	br	3b38 <__alt_mem_VGA_Subsystem_Char_Buf_Subsystem_Onchip_SRAM+0xf7003b38>
    3ce4:	00c15504 	movi	r3,1364
    3ce8:	19400536 	bltu	r3,r5,3d00 <_free_r+0x2f0>
    3cec:	100ad4ba 	srli	r5,r2,18
    3cf0:	28c01f44 	addi	r3,r5,125
    3cf4:	18c7883a 	add	r3,r3,r3
    3cf8:	29401f04 	addi	r5,r5,124
    3cfc:	003f8e06 	br	3b38 <__alt_mem_VGA_Subsystem_Char_Buf_Subsystem_Onchip_SRAM+0xf7003b38>
    3d00:	00c03f84 	movi	r3,254
    3d04:	01401f84 	movi	r5,126
    3d08:	003f8b06 	br	3b38 <__alt_mem_VGA_Subsystem_Char_Buf_Subsystem_Onchip_SRAM+0xf7003b38>
    3d0c:	10c00054 	ori	r3,r2,1
    3d10:	30c00115 	stw	r3,4(r6)
    3d14:	308d883a 	add	r6,r6,r2
    3d18:	30800015 	stw	r2,0(r6)
    3d1c:	003f7806 	br	3b00 <__alt_mem_VGA_Subsystem_Char_Buf_Subsystem_Onchip_SRAM+0xf7003b00>

00003d20 <_lseek_r>:
    3d20:	defffd04 	addi	sp,sp,-12
    3d24:	2805883a 	mov	r2,r5
    3d28:	dc000015 	stw	r16,0(sp)
    3d2c:	04000074 	movhi	r16,1
    3d30:	dc400115 	stw	r17,4(sp)
    3d34:	300b883a 	mov	r5,r6
    3d38:	84140a04 	addi	r16,r16,20520
    3d3c:	2023883a 	mov	r17,r4
    3d40:	380d883a 	mov	r6,r7
    3d44:	1009883a 	mov	r4,r2
    3d48:	dfc00215 	stw	ra,8(sp)
    3d4c:	80000015 	stw	zero,0(r16)
    3d50:	000462c0 	call	462c <lseek>
    3d54:	00ffffc4 	movi	r3,-1
    3d58:	10c00526 	beq	r2,r3,3d70 <_lseek_r+0x50>
    3d5c:	dfc00217 	ldw	ra,8(sp)
    3d60:	dc400117 	ldw	r17,4(sp)
    3d64:	dc000017 	ldw	r16,0(sp)
    3d68:	dec00304 	addi	sp,sp,12
    3d6c:	f800283a 	ret
    3d70:	80c00017 	ldw	r3,0(r16)
    3d74:	183ff926 	beq	r3,zero,3d5c <__alt_mem_VGA_Subsystem_Char_Buf_Subsystem_Onchip_SRAM+0xf7003d5c>
    3d78:	88c00015 	stw	r3,0(r17)
    3d7c:	003ff706 	br	3d5c <__alt_mem_VGA_Subsystem_Char_Buf_Subsystem_Onchip_SRAM+0xf7003d5c>

00003d80 <__smakebuf_r>:
    3d80:	2880030b 	ldhu	r2,12(r5)
    3d84:	10c0008c 	andi	r3,r2,2
    3d88:	1800411e 	bne	r3,zero,3e90 <__smakebuf_r+0x110>
    3d8c:	deffec04 	addi	sp,sp,-80
    3d90:	dc000f15 	stw	r16,60(sp)
    3d94:	2821883a 	mov	r16,r5
    3d98:	2940038f 	ldh	r5,14(r5)
    3d9c:	dc401015 	stw	r17,64(sp)
    3da0:	dfc01315 	stw	ra,76(sp)
    3da4:	dcc01215 	stw	r19,72(sp)
    3da8:	dc801115 	stw	r18,68(sp)
    3dac:	2023883a 	mov	r17,r4
    3db0:	28001c16 	blt	r5,zero,3e24 <__smakebuf_r+0xa4>
    3db4:	d80d883a 	mov	r6,sp
    3db8:	0003f9c0 	call	3f9c <_fstat_r>
    3dbc:	10001816 	blt	r2,zero,3e20 <__smakebuf_r+0xa0>
    3dc0:	d8800117 	ldw	r2,4(sp)
    3dc4:	00e00014 	movui	r3,32768
    3dc8:	10bc000c 	andi	r2,r2,61440
    3dcc:	14c80020 	cmpeqi	r19,r2,8192
    3dd0:	10c03726 	beq	r2,r3,3eb0 <__smakebuf_r+0x130>
    3dd4:	80c0030b 	ldhu	r3,12(r16)
    3dd8:	18c20014 	ori	r3,r3,2048
    3ddc:	80c0030d 	sth	r3,12(r16)
    3de0:	00c80004 	movi	r3,8192
    3de4:	10c0521e 	bne	r2,r3,3f30 <__smakebuf_r+0x1b0>
    3de8:	8140038f 	ldh	r5,14(r16)
    3dec:	8809883a 	mov	r4,r17
    3df0:	0003ff80 	call	3ff8 <_isatty_r>
    3df4:	10004c26 	beq	r2,zero,3f28 <__smakebuf_r+0x1a8>
    3df8:	8080030b 	ldhu	r2,12(r16)
    3dfc:	80c010c4 	addi	r3,r16,67
    3e00:	80c00015 	stw	r3,0(r16)
    3e04:	10800054 	ori	r2,r2,1
    3e08:	8080030d 	sth	r2,12(r16)
    3e0c:	00800044 	movi	r2,1
    3e10:	80c00415 	stw	r3,16(r16)
    3e14:	80800515 	stw	r2,20(r16)
    3e18:	04810004 	movi	r18,1024
    3e1c:	00000706 	br	3e3c <__smakebuf_r+0xbc>
    3e20:	8080030b 	ldhu	r2,12(r16)
    3e24:	10c0200c 	andi	r3,r2,128
    3e28:	18001f1e 	bne	r3,zero,3ea8 <__smakebuf_r+0x128>
    3e2c:	04810004 	movi	r18,1024
    3e30:	10820014 	ori	r2,r2,2048
    3e34:	8080030d 	sth	r2,12(r16)
    3e38:	0027883a 	mov	r19,zero
    3e3c:	900b883a 	mov	r5,r18
    3e40:	8809883a 	mov	r4,r17
    3e44:	0001f880 	call	1f88 <_malloc_r>
    3e48:	10002c26 	beq	r2,zero,3efc <__smakebuf_r+0x17c>
    3e4c:	80c0030b 	ldhu	r3,12(r16)
    3e50:	01000034 	movhi	r4,0
    3e54:	21056b04 	addi	r4,r4,5548
    3e58:	89000f15 	stw	r4,60(r17)
    3e5c:	18c02014 	ori	r3,r3,128
    3e60:	80c0030d 	sth	r3,12(r16)
    3e64:	80800015 	stw	r2,0(r16)
    3e68:	80800415 	stw	r2,16(r16)
    3e6c:	84800515 	stw	r18,20(r16)
    3e70:	98001a1e 	bne	r19,zero,3edc <__smakebuf_r+0x15c>
    3e74:	dfc01317 	ldw	ra,76(sp)
    3e78:	dcc01217 	ldw	r19,72(sp)
    3e7c:	dc801117 	ldw	r18,68(sp)
    3e80:	dc401017 	ldw	r17,64(sp)
    3e84:	dc000f17 	ldw	r16,60(sp)
    3e88:	dec01404 	addi	sp,sp,80
    3e8c:	f800283a 	ret
    3e90:	288010c4 	addi	r2,r5,67
    3e94:	28800015 	stw	r2,0(r5)
    3e98:	28800415 	stw	r2,16(r5)
    3e9c:	00800044 	movi	r2,1
    3ea0:	28800515 	stw	r2,20(r5)
    3ea4:	f800283a 	ret
    3ea8:	04801004 	movi	r18,64
    3eac:	003fe006 	br	3e30 <__alt_mem_VGA_Subsystem_Char_Buf_Subsystem_Onchip_SRAM+0xf7003e30>
    3eb0:	81000a17 	ldw	r4,40(r16)
    3eb4:	00c00034 	movhi	r3,0
    3eb8:	18ccb504 	addi	r3,r3,13012
    3ebc:	20ffc51e 	bne	r4,r3,3dd4 <__alt_mem_VGA_Subsystem_Char_Buf_Subsystem_Onchip_SRAM+0xf7003dd4>
    3ec0:	8080030b 	ldhu	r2,12(r16)
    3ec4:	04810004 	movi	r18,1024
    3ec8:	84801315 	stw	r18,76(r16)
    3ecc:	1484b03a 	or	r2,r2,r18
    3ed0:	8080030d 	sth	r2,12(r16)
    3ed4:	0027883a 	mov	r19,zero
    3ed8:	003fd806 	br	3e3c <__alt_mem_VGA_Subsystem_Char_Buf_Subsystem_Onchip_SRAM+0xf7003e3c>
    3edc:	8140038f 	ldh	r5,14(r16)
    3ee0:	8809883a 	mov	r4,r17
    3ee4:	0003ff80 	call	3ff8 <_isatty_r>
    3ee8:	103fe226 	beq	r2,zero,3e74 <__alt_mem_VGA_Subsystem_Char_Buf_Subsystem_Onchip_SRAM+0xf7003e74>
    3eec:	8080030b 	ldhu	r2,12(r16)
    3ef0:	10800054 	ori	r2,r2,1
    3ef4:	8080030d 	sth	r2,12(r16)
    3ef8:	003fde06 	br	3e74 <__alt_mem_VGA_Subsystem_Char_Buf_Subsystem_Onchip_SRAM+0xf7003e74>
    3efc:	8080030b 	ldhu	r2,12(r16)
    3f00:	10c0800c 	andi	r3,r2,512
    3f04:	183fdb1e 	bne	r3,zero,3e74 <__alt_mem_VGA_Subsystem_Char_Buf_Subsystem_Onchip_SRAM+0xf7003e74>
    3f08:	10800094 	ori	r2,r2,2
    3f0c:	80c010c4 	addi	r3,r16,67
    3f10:	8080030d 	sth	r2,12(r16)
    3f14:	00800044 	movi	r2,1
    3f18:	80c00015 	stw	r3,0(r16)
    3f1c:	80c00415 	stw	r3,16(r16)
    3f20:	80800515 	stw	r2,20(r16)
    3f24:	003fd306 	br	3e74 <__alt_mem_VGA_Subsystem_Char_Buf_Subsystem_Onchip_SRAM+0xf7003e74>
    3f28:	04810004 	movi	r18,1024
    3f2c:	003fc306 	br	3e3c <__alt_mem_VGA_Subsystem_Char_Buf_Subsystem_Onchip_SRAM+0xf7003e3c>
    3f30:	0027883a 	mov	r19,zero
    3f34:	04810004 	movi	r18,1024
    3f38:	003fc006 	br	3e3c <__alt_mem_VGA_Subsystem_Char_Buf_Subsystem_Onchip_SRAM+0xf7003e3c>

00003f3c <_read_r>:
    3f3c:	defffd04 	addi	sp,sp,-12
    3f40:	2805883a 	mov	r2,r5
    3f44:	dc000015 	stw	r16,0(sp)
    3f48:	04000074 	movhi	r16,1
    3f4c:	dc400115 	stw	r17,4(sp)
    3f50:	300b883a 	mov	r5,r6
    3f54:	84140a04 	addi	r16,r16,20520
    3f58:	2023883a 	mov	r17,r4
    3f5c:	380d883a 	mov	r6,r7
    3f60:	1009883a 	mov	r4,r2
    3f64:	dfc00215 	stw	ra,8(sp)
    3f68:	80000015 	stw	zero,0(r16)
    3f6c:	00047f80 	call	47f8 <read>
    3f70:	00ffffc4 	movi	r3,-1
    3f74:	10c00526 	beq	r2,r3,3f8c <_read_r+0x50>
    3f78:	dfc00217 	ldw	ra,8(sp)
    3f7c:	dc400117 	ldw	r17,4(sp)
    3f80:	dc000017 	ldw	r16,0(sp)
    3f84:	dec00304 	addi	sp,sp,12
    3f88:	f800283a 	ret
    3f8c:	80c00017 	ldw	r3,0(r16)
    3f90:	183ff926 	beq	r3,zero,3f78 <__alt_mem_VGA_Subsystem_Char_Buf_Subsystem_Onchip_SRAM+0xf7003f78>
    3f94:	88c00015 	stw	r3,0(r17)
    3f98:	003ff706 	br	3f78 <__alt_mem_VGA_Subsystem_Char_Buf_Subsystem_Onchip_SRAM+0xf7003f78>

00003f9c <_fstat_r>:
    3f9c:	defffd04 	addi	sp,sp,-12
    3fa0:	2805883a 	mov	r2,r5
    3fa4:	dc000015 	stw	r16,0(sp)
    3fa8:	04000074 	movhi	r16,1
    3fac:	dc400115 	stw	r17,4(sp)
    3fb0:	84140a04 	addi	r16,r16,20520
    3fb4:	2023883a 	mov	r17,r4
    3fb8:	300b883a 	mov	r5,r6
    3fbc:	1009883a 	mov	r4,r2
    3fc0:	dfc00215 	stw	ra,8(sp)
    3fc4:	80000015 	stw	zero,0(r16)
    3fc8:	00043740 	call	4374 <fstat>
    3fcc:	00ffffc4 	movi	r3,-1
    3fd0:	10c00526 	beq	r2,r3,3fe8 <_fstat_r+0x4c>
    3fd4:	dfc00217 	ldw	ra,8(sp)
    3fd8:	dc400117 	ldw	r17,4(sp)
    3fdc:	dc000017 	ldw	r16,0(sp)
    3fe0:	dec00304 	addi	sp,sp,12
    3fe4:	f800283a 	ret
    3fe8:	80c00017 	ldw	r3,0(r16)
    3fec:	183ff926 	beq	r3,zero,3fd4 <__alt_mem_VGA_Subsystem_Char_Buf_Subsystem_Onchip_SRAM+0xf7003fd4>
    3ff0:	88c00015 	stw	r3,0(r17)
    3ff4:	003ff706 	br	3fd4 <__alt_mem_VGA_Subsystem_Char_Buf_Subsystem_Onchip_SRAM+0xf7003fd4>

00003ff8 <_isatty_r>:
    3ff8:	defffd04 	addi	sp,sp,-12
    3ffc:	dc000015 	stw	r16,0(sp)
    4000:	04000074 	movhi	r16,1
    4004:	dc400115 	stw	r17,4(sp)
    4008:	84140a04 	addi	r16,r16,20520
    400c:	2023883a 	mov	r17,r4
    4010:	2809883a 	mov	r4,r5
    4014:	dfc00215 	stw	ra,8(sp)
    4018:	80000015 	stw	zero,0(r16)
    401c:	00044600 	call	4460 <isatty>
    4020:	00ffffc4 	movi	r3,-1
    4024:	10c00526 	beq	r2,r3,403c <_isatty_r+0x44>
    4028:	dfc00217 	ldw	ra,8(sp)
    402c:	dc400117 	ldw	r17,4(sp)
    4030:	dc000017 	ldw	r16,0(sp)
    4034:	dec00304 	addi	sp,sp,12
    4038:	f800283a 	ret
    403c:	80c00017 	ldw	r3,0(r16)
    4040:	183ff926 	beq	r3,zero,4028 <__alt_mem_VGA_Subsystem_Char_Buf_Subsystem_Onchip_SRAM+0xf7004028>
    4044:	88c00015 	stw	r3,0(r17)
    4048:	003ff706 	br	4028 <__alt_mem_VGA_Subsystem_Char_Buf_Subsystem_Onchip_SRAM+0xf7004028>

0000404c <__divsi3>:
    404c:	20001b16 	blt	r4,zero,40bc <__divsi3+0x70>
    4050:	000f883a 	mov	r7,zero
    4054:	28001616 	blt	r5,zero,40b0 <__divsi3+0x64>
    4058:	200d883a 	mov	r6,r4
    405c:	29001a2e 	bgeu	r5,r4,40c8 <__divsi3+0x7c>
    4060:	00800804 	movi	r2,32
    4064:	00c00044 	movi	r3,1
    4068:	00000106 	br	4070 <__divsi3+0x24>
    406c:	10000d26 	beq	r2,zero,40a4 <__divsi3+0x58>
    4070:	294b883a 	add	r5,r5,r5
    4074:	10bfffc4 	addi	r2,r2,-1
    4078:	18c7883a 	add	r3,r3,r3
    407c:	293ffb36 	bltu	r5,r4,406c <__alt_mem_VGA_Subsystem_Char_Buf_Subsystem_Onchip_SRAM+0xf700406c>
    4080:	0005883a 	mov	r2,zero
    4084:	18000726 	beq	r3,zero,40a4 <__divsi3+0x58>
    4088:	0005883a 	mov	r2,zero
    408c:	31400236 	bltu	r6,r5,4098 <__divsi3+0x4c>
    4090:	314dc83a 	sub	r6,r6,r5
    4094:	10c4b03a 	or	r2,r2,r3
    4098:	1806d07a 	srli	r3,r3,1
    409c:	280ad07a 	srli	r5,r5,1
    40a0:	183ffa1e 	bne	r3,zero,408c <__alt_mem_VGA_Subsystem_Char_Buf_Subsystem_Onchip_SRAM+0xf700408c>
    40a4:	38000126 	beq	r7,zero,40ac <__divsi3+0x60>
    40a8:	0085c83a 	sub	r2,zero,r2
    40ac:	f800283a 	ret
    40b0:	014bc83a 	sub	r5,zero,r5
    40b4:	39c0005c 	xori	r7,r7,1
    40b8:	003fe706 	br	4058 <__alt_mem_VGA_Subsystem_Char_Buf_Subsystem_Onchip_SRAM+0xf7004058>
    40bc:	0109c83a 	sub	r4,zero,r4
    40c0:	01c00044 	movi	r7,1
    40c4:	003fe306 	br	4054 <__alt_mem_VGA_Subsystem_Char_Buf_Subsystem_Onchip_SRAM+0xf7004054>
    40c8:	00c00044 	movi	r3,1
    40cc:	003fee06 	br	4088 <__alt_mem_VGA_Subsystem_Char_Buf_Subsystem_Onchip_SRAM+0xf7004088>

000040d0 <__modsi3>:
    40d0:	20001716 	blt	r4,zero,4130 <__modsi3+0x60>
    40d4:	000f883a 	mov	r7,zero
    40d8:	2005883a 	mov	r2,r4
    40dc:	28001216 	blt	r5,zero,4128 <__modsi3+0x58>
    40e0:	2900162e 	bgeu	r5,r4,413c <__modsi3+0x6c>
    40e4:	01800804 	movi	r6,32
    40e8:	00c00044 	movi	r3,1
    40ec:	00000106 	br	40f4 <__modsi3+0x24>
    40f0:	30000a26 	beq	r6,zero,411c <__modsi3+0x4c>
    40f4:	294b883a 	add	r5,r5,r5
    40f8:	31bfffc4 	addi	r6,r6,-1
    40fc:	18c7883a 	add	r3,r3,r3
    4100:	293ffb36 	bltu	r5,r4,40f0 <__alt_mem_VGA_Subsystem_Char_Buf_Subsystem_Onchip_SRAM+0xf70040f0>
    4104:	18000526 	beq	r3,zero,411c <__modsi3+0x4c>
    4108:	1806d07a 	srli	r3,r3,1
    410c:	11400136 	bltu	r2,r5,4114 <__modsi3+0x44>
    4110:	1145c83a 	sub	r2,r2,r5
    4114:	280ad07a 	srli	r5,r5,1
    4118:	183ffb1e 	bne	r3,zero,4108 <__alt_mem_VGA_Subsystem_Char_Buf_Subsystem_Onchip_SRAM+0xf7004108>
    411c:	38000126 	beq	r7,zero,4124 <__modsi3+0x54>
    4120:	0085c83a 	sub	r2,zero,r2
    4124:	f800283a 	ret
    4128:	014bc83a 	sub	r5,zero,r5
    412c:	003fec06 	br	40e0 <__alt_mem_VGA_Subsystem_Char_Buf_Subsystem_Onchip_SRAM+0xf70040e0>
    4130:	0109c83a 	sub	r4,zero,r4
    4134:	01c00044 	movi	r7,1
    4138:	003fe706 	br	40d8 <__alt_mem_VGA_Subsystem_Char_Buf_Subsystem_Onchip_SRAM+0xf70040d8>
    413c:	00c00044 	movi	r3,1
    4140:	003ff106 	br	4108 <__alt_mem_VGA_Subsystem_Char_Buf_Subsystem_Onchip_SRAM+0xf7004108>

00004144 <__udivsi3>:
    4144:	200d883a 	mov	r6,r4
    4148:	2900152e 	bgeu	r5,r4,41a0 <__udivsi3+0x5c>
    414c:	28001416 	blt	r5,zero,41a0 <__udivsi3+0x5c>
    4150:	00800804 	movi	r2,32
    4154:	00c00044 	movi	r3,1
    4158:	00000206 	br	4164 <__udivsi3+0x20>
    415c:	10000e26 	beq	r2,zero,4198 <__udivsi3+0x54>
    4160:	28000516 	blt	r5,zero,4178 <__udivsi3+0x34>
    4164:	294b883a 	add	r5,r5,r5
    4168:	10bfffc4 	addi	r2,r2,-1
    416c:	18c7883a 	add	r3,r3,r3
    4170:	293ffa36 	bltu	r5,r4,415c <__alt_mem_VGA_Subsystem_Char_Buf_Subsystem_Onchip_SRAM+0xf700415c>
    4174:	18000826 	beq	r3,zero,4198 <__udivsi3+0x54>
    4178:	0005883a 	mov	r2,zero
    417c:	31400236 	bltu	r6,r5,4188 <__udivsi3+0x44>
    4180:	314dc83a 	sub	r6,r6,r5
    4184:	10c4b03a 	or	r2,r2,r3
    4188:	1806d07a 	srli	r3,r3,1
    418c:	280ad07a 	srli	r5,r5,1
    4190:	183ffa1e 	bne	r3,zero,417c <__alt_mem_VGA_Subsystem_Char_Buf_Subsystem_Onchip_SRAM+0xf700417c>
    4194:	f800283a 	ret
    4198:	0005883a 	mov	r2,zero
    419c:	f800283a 	ret
    41a0:	00c00044 	movi	r3,1
    41a4:	003ff406 	br	4178 <__alt_mem_VGA_Subsystem_Char_Buf_Subsystem_Onchip_SRAM+0xf7004178>

000041a8 <__umodsi3>:
    41a8:	2005883a 	mov	r2,r4
    41ac:	2900122e 	bgeu	r5,r4,41f8 <__umodsi3+0x50>
    41b0:	28001116 	blt	r5,zero,41f8 <__umodsi3+0x50>
    41b4:	01800804 	movi	r6,32
    41b8:	00c00044 	movi	r3,1
    41bc:	00000206 	br	41c8 <__umodsi3+0x20>
    41c0:	30000c26 	beq	r6,zero,41f4 <__umodsi3+0x4c>
    41c4:	28000516 	blt	r5,zero,41dc <__umodsi3+0x34>
    41c8:	294b883a 	add	r5,r5,r5
    41cc:	31bfffc4 	addi	r6,r6,-1
    41d0:	18c7883a 	add	r3,r3,r3
    41d4:	293ffa36 	bltu	r5,r4,41c0 <__alt_mem_VGA_Subsystem_Char_Buf_Subsystem_Onchip_SRAM+0xf70041c0>
    41d8:	18000626 	beq	r3,zero,41f4 <__umodsi3+0x4c>
    41dc:	1806d07a 	srli	r3,r3,1
    41e0:	11400136 	bltu	r2,r5,41e8 <__umodsi3+0x40>
    41e4:	1145c83a 	sub	r2,r2,r5
    41e8:	280ad07a 	srli	r5,r5,1
    41ec:	183ffb1e 	bne	r3,zero,41dc <__alt_mem_VGA_Subsystem_Char_Buf_Subsystem_Onchip_SRAM+0xf70041dc>
    41f0:	f800283a 	ret
    41f4:	f800283a 	ret
    41f8:	00c00044 	movi	r3,1
    41fc:	003ff706 	br	41dc <__alt_mem_VGA_Subsystem_Char_Buf_Subsystem_Onchip_SRAM+0xf70041dc>

00004200 <alt_get_errno>:
#undef errno

extern int errno;

static ALT_INLINE int* alt_get_errno(void)
{
    4200:	defffe04 	addi	sp,sp,-8
    4204:	dfc00115 	stw	ra,4(sp)
    4208:	df000015 	stw	fp,0(sp)
    420c:	d839883a 	mov	fp,sp
  return ((alt_errno) ? alt_errno() : &errno);
    4210:	d0a00b17 	ldw	r2,-32724(gp)
    4214:	10000326 	beq	r2,zero,4224 <alt_get_errno+0x24>
    4218:	d0a00b17 	ldw	r2,-32724(gp)
    421c:	103ee83a 	callr	r2
    4220:	00000106 	br	4228 <alt_get_errno+0x28>
    4224:	d0a7c904 	addi	r2,gp,-24796
}
    4228:	e037883a 	mov	sp,fp
    422c:	dfc00117 	ldw	ra,4(sp)
    4230:	df000017 	ldw	fp,0(sp)
    4234:	dec00204 	addi	sp,sp,8
    4238:	f800283a 	ret

0000423c <close>:
 *
 * ALT_CLOSE is mapped onto the close() system call in alt_syscall.h
 */
 
int ALT_CLOSE (int fildes)
{
    423c:	defffb04 	addi	sp,sp,-20
    4240:	dfc00415 	stw	ra,16(sp)
    4244:	df000315 	stw	fp,12(sp)
    4248:	df000304 	addi	fp,sp,12
    424c:	e13fff15 	stw	r4,-4(fp)
   * A common error case is that when the file descriptor was created, the call
   * to open() failed resulting in a negative file descriptor. This is trapped
   * below so that we don't try and process an invalid file descriptor.
   */

  fd = (fildes < 0) ? NULL : &alt_fd_list[fildes];
    4250:	e0bfff17 	ldw	r2,-4(fp)
    4254:	10000616 	blt	r2,zero,4270 <close+0x34>
    4258:	e0bfff17 	ldw	r2,-4(fp)
    425c:	10c00324 	muli	r3,r2,12
    4260:	00800074 	movhi	r2,1
    4264:	10870304 	addi	r2,r2,7180
    4268:	1885883a 	add	r2,r3,r2
    426c:	00000106 	br	4274 <close+0x38>
    4270:	0005883a 	mov	r2,zero
    4274:	e0bffd15 	stw	r2,-12(fp)

  if (fd)
    4278:	e0bffd17 	ldw	r2,-12(fp)
    427c:	10001926 	beq	r2,zero,42e4 <close+0xa8>
    /*
     * If the associated file system/device has a close function, call it so 
     * that any necessary cleanup code can run.
     */

    rval = (fd->dev->close) ? fd->dev->close(fd) : 0;
    4280:	e0bffd17 	ldw	r2,-12(fp)
    4284:	10800017 	ldw	r2,0(r2)
    4288:	10800417 	ldw	r2,16(r2)
    428c:	10000626 	beq	r2,zero,42a8 <close+0x6c>
    4290:	e0bffd17 	ldw	r2,-12(fp)
    4294:	10800017 	ldw	r2,0(r2)
    4298:	10800417 	ldw	r2,16(r2)
    429c:	e13ffd17 	ldw	r4,-12(fp)
    42a0:	103ee83a 	callr	r2
    42a4:	00000106 	br	42ac <close+0x70>
    42a8:	0005883a 	mov	r2,zero
    42ac:	e0bffe15 	stw	r2,-8(fp)

    /* Free the file descriptor structure and return. */

    alt_release_fd (fildes);
    42b0:	e13fff17 	ldw	r4,-4(fp)
    42b4:	00048f40 	call	48f4 <alt_release_fd>
    if (rval < 0)
    42b8:	e0bffe17 	ldw	r2,-8(fp)
    42bc:	1000070e 	bge	r2,zero,42dc <close+0xa0>
    {
      ALT_ERRNO = -rval;
    42c0:	00042000 	call	4200 <alt_get_errno>
    42c4:	1007883a 	mov	r3,r2
    42c8:	e0bffe17 	ldw	r2,-8(fp)
    42cc:	0085c83a 	sub	r2,zero,r2
    42d0:	18800015 	stw	r2,0(r3)
      return -1;
    42d4:	00bfffc4 	movi	r2,-1
    42d8:	00000706 	br	42f8 <close+0xbc>
    }
    return 0;
    42dc:	0005883a 	mov	r2,zero
    42e0:	00000506 	br	42f8 <close+0xbc>
  }
  else
  {
    ALT_ERRNO = EBADFD;
    42e4:	00042000 	call	4200 <alt_get_errno>
    42e8:	1007883a 	mov	r3,r2
    42ec:	00801444 	movi	r2,81
    42f0:	18800015 	stw	r2,0(r3)
    return -1;
    42f4:	00bfffc4 	movi	r2,-1
  }
}
    42f8:	e037883a 	mov	sp,fp
    42fc:	dfc00117 	ldw	ra,4(sp)
    4300:	df000017 	ldw	fp,0(sp)
    4304:	dec00204 	addi	sp,sp,8
    4308:	f800283a 	ret

0000430c <alt_dev_null_write>:
 * by the alt_dev_null device. It simple discards all data passed to it, and
 * indicates that the data has been successfully transmitted.
 */

static int alt_dev_null_write (alt_fd* fd, const char* ptr, int len)
{
    430c:	defffc04 	addi	sp,sp,-16
    4310:	df000315 	stw	fp,12(sp)
    4314:	df000304 	addi	fp,sp,12
    4318:	e13ffd15 	stw	r4,-12(fp)
    431c:	e17ffe15 	stw	r5,-8(fp)
    4320:	e1bfff15 	stw	r6,-4(fp)
  return len;
    4324:	e0bfff17 	ldw	r2,-4(fp)
}
    4328:	e037883a 	mov	sp,fp
    432c:	df000017 	ldw	fp,0(sp)
    4330:	dec00104 	addi	sp,sp,4
    4334:	f800283a 	ret

00004338 <alt_get_errno>:
#undef errno

extern int errno;

static ALT_INLINE int* alt_get_errno(void)
{
    4338:	defffe04 	addi	sp,sp,-8
    433c:	dfc00115 	stw	ra,4(sp)
    4340:	df000015 	stw	fp,0(sp)
    4344:	d839883a 	mov	fp,sp
  return ((alt_errno) ? alt_errno() : &errno);
    4348:	d0a00b17 	ldw	r2,-32724(gp)
    434c:	10000326 	beq	r2,zero,435c <alt_get_errno+0x24>
    4350:	d0a00b17 	ldw	r2,-32724(gp)
    4354:	103ee83a 	callr	r2
    4358:	00000106 	br	4360 <alt_get_errno+0x28>
    435c:	d0a7c904 	addi	r2,gp,-24796
}
    4360:	e037883a 	mov	sp,fp
    4364:	dfc00117 	ldw	ra,4(sp)
    4368:	df000017 	ldw	fp,0(sp)
    436c:	dec00204 	addi	sp,sp,8
    4370:	f800283a 	ret

00004374 <fstat>:
}

#else /* !ALT_USE_DIRECT_DRIVERS */

int ALT_FSTAT (int file, struct stat *st)
{
    4374:	defffb04 	addi	sp,sp,-20
    4378:	dfc00415 	stw	ra,16(sp)
    437c:	df000315 	stw	fp,12(sp)
    4380:	df000304 	addi	fp,sp,12
    4384:	e13ffe15 	stw	r4,-8(fp)
    4388:	e17fff15 	stw	r5,-4(fp)
   * A common error case is that when the file descriptor was created, the call
   * to open() failed resulting in a negative file descriptor. This is trapped
   * below so that we don't try and process an invalid file descriptor.
   */

  fd = (file < 0) ? NULL : &alt_fd_list[file];
    438c:	e0bffe17 	ldw	r2,-8(fp)
    4390:	10000616 	blt	r2,zero,43ac <fstat+0x38>
    4394:	e0bffe17 	ldw	r2,-8(fp)
    4398:	10c00324 	muli	r3,r2,12
    439c:	00800074 	movhi	r2,1
    43a0:	10870304 	addi	r2,r2,7180
    43a4:	1885883a 	add	r2,r3,r2
    43a8:	00000106 	br	43b0 <fstat+0x3c>
    43ac:	0005883a 	mov	r2,zero
    43b0:	e0bffd15 	stw	r2,-12(fp)
  
  if (fd)
    43b4:	e0bffd17 	ldw	r2,-12(fp)
    43b8:	10001026 	beq	r2,zero,43fc <fstat+0x88>
  {
    /* Call the drivers fstat() function to fill out the "st" structure. */

    if (fd->dev->fstat)
    43bc:	e0bffd17 	ldw	r2,-12(fp)
    43c0:	10800017 	ldw	r2,0(r2)
    43c4:	10800817 	ldw	r2,32(r2)
    43c8:	10000726 	beq	r2,zero,43e8 <fstat+0x74>
    {
      return fd->dev->fstat(fd, st);
    43cc:	e0bffd17 	ldw	r2,-12(fp)
    43d0:	10800017 	ldw	r2,0(r2)
    43d4:	10800817 	ldw	r2,32(r2)
    43d8:	e17fff17 	ldw	r5,-4(fp)
    43dc:	e13ffd17 	ldw	r4,-12(fp)
    43e0:	103ee83a 	callr	r2
    43e4:	00000a06 	br	4410 <fstat+0x9c>
     * device.
     */
 
    else
    {
      st->st_mode = _IFCHR;
    43e8:	e0bfff17 	ldw	r2,-4(fp)
    43ec:	00c80004 	movi	r3,8192
    43f0:	10c00115 	stw	r3,4(r2)
      return 0;
    43f4:	0005883a 	mov	r2,zero
    43f8:	00000506 	br	4410 <fstat+0x9c>
    }
  }
  else
  {
    ALT_ERRNO = EBADFD;
    43fc:	00043380 	call	4338 <alt_get_errno>
    4400:	1007883a 	mov	r3,r2
    4404:	00801444 	movi	r2,81
    4408:	18800015 	stw	r2,0(r3)
    return -1;
    440c:	00bfffc4 	movi	r2,-1
  }
}
    4410:	e037883a 	mov	sp,fp
    4414:	dfc00117 	ldw	ra,4(sp)
    4418:	df000017 	ldw	fp,0(sp)
    441c:	dec00204 	addi	sp,sp,8
    4420:	f800283a 	ret

00004424 <alt_get_errno>:
#undef errno

extern int errno;

static ALT_INLINE int* alt_get_errno(void)
{
    4424:	defffe04 	addi	sp,sp,-8
    4428:	dfc00115 	stw	ra,4(sp)
    442c:	df000015 	stw	fp,0(sp)
    4430:	d839883a 	mov	fp,sp
  return ((alt_errno) ? alt_errno() : &errno);
    4434:	d0a00b17 	ldw	r2,-32724(gp)
    4438:	10000326 	beq	r2,zero,4448 <alt_get_errno+0x24>
    443c:	d0a00b17 	ldw	r2,-32724(gp)
    4440:	103ee83a 	callr	r2
    4444:	00000106 	br	444c <alt_get_errno+0x28>
    4448:	d0a7c904 	addi	r2,gp,-24796
}
    444c:	e037883a 	mov	sp,fp
    4450:	dfc00117 	ldw	ra,4(sp)
    4454:	df000017 	ldw	fp,0(sp)
    4458:	dec00204 	addi	sp,sp,8
    445c:	f800283a 	ret

00004460 <isatty>:
 *
 * ALT_ISATTY is mapped onto the isatty() system call in alt_syscall.h
 */
 
int ALT_ISATTY (int file)
{
    4460:	deffed04 	addi	sp,sp,-76
    4464:	dfc01215 	stw	ra,72(sp)
    4468:	df001115 	stw	fp,68(sp)
    446c:	df001104 	addi	fp,sp,68
    4470:	e13fff15 	stw	r4,-4(fp)
   * A common error case is that when the file descriptor was created, the call
   * to open() failed resulting in a negative file descriptor. This is trapped
   * below so that we don't try and process an invalid file descriptor.
   */

  fd = (file < 0) ? NULL : &alt_fd_list[file];
    4474:	e0bfff17 	ldw	r2,-4(fp)
    4478:	10000616 	blt	r2,zero,4494 <isatty+0x34>
    447c:	e0bfff17 	ldw	r2,-4(fp)
    4480:	10c00324 	muli	r3,r2,12
    4484:	00800074 	movhi	r2,1
    4488:	10870304 	addi	r2,r2,7180
    448c:	1885883a 	add	r2,r3,r2
    4490:	00000106 	br	4498 <isatty+0x38>
    4494:	0005883a 	mov	r2,zero
    4498:	e0bfef15 	stw	r2,-68(fp)
  
  if (fd)
    449c:	e0bfef17 	ldw	r2,-68(fp)
    44a0:	10000e26 	beq	r2,zero,44dc <isatty+0x7c>
    /*
     * If a device driver does not provide an fstat() function, then it is 
     * treated as a terminal device by default.
     */

    if (!fd->dev->fstat)
    44a4:	e0bfef17 	ldw	r2,-68(fp)
    44a8:	10800017 	ldw	r2,0(r2)
    44ac:	10800817 	ldw	r2,32(r2)
    44b0:	1000021e 	bne	r2,zero,44bc <isatty+0x5c>
    {
      return 1;
    44b4:	00800044 	movi	r2,1
    44b8:	00000d06 	br	44f0 <isatty+0x90>
     * this is called so that the device can identify itself.
     */ 

    else
    {
      fstat (file, &stat);
    44bc:	e0bff004 	addi	r2,fp,-64
    44c0:	100b883a 	mov	r5,r2
    44c4:	e13fff17 	ldw	r4,-4(fp)
    44c8:	00043740 	call	4374 <fstat>
      return (stat.st_mode == _IFCHR) ? 1 : 0;
    44cc:	e0bff117 	ldw	r2,-60(fp)
    44d0:	10880020 	cmpeqi	r2,r2,8192
    44d4:	10803fcc 	andi	r2,r2,255
    44d8:	00000506 	br	44f0 <isatty+0x90>
    }
  }
  else
  {
    ALT_ERRNO = EBADFD;
    44dc:	00044240 	call	4424 <alt_get_errno>
    44e0:	1007883a 	mov	r3,r2
    44e4:	00801444 	movi	r2,81
    44e8:	18800015 	stw	r2,0(r3)
    return 0;
    44ec:	0005883a 	mov	r2,zero
  }
}
    44f0:	e037883a 	mov	sp,fp
    44f4:	dfc00117 	ldw	ra,4(sp)
    44f8:	df000017 	ldw	fp,0(sp)
    44fc:	dec00204 	addi	sp,sp,8
    4500:	f800283a 	ret

00004504 <alt_load_section>:
 */

static void ALT_INLINE alt_load_section (alt_u32* from, 
                                         alt_u32* to, 
                                         alt_u32* end)
{
    4504:	defffc04 	addi	sp,sp,-16
    4508:	df000315 	stw	fp,12(sp)
    450c:	df000304 	addi	fp,sp,12
    4510:	e13ffd15 	stw	r4,-12(fp)
    4514:	e17ffe15 	stw	r5,-8(fp)
    4518:	e1bfff15 	stw	r6,-4(fp)
  if (to != from)
    451c:	e0fffe17 	ldw	r3,-8(fp)
    4520:	e0bffd17 	ldw	r2,-12(fp)
    4524:	18800c26 	beq	r3,r2,4558 <alt_load_section+0x54>
  {
    while( to != end )
    4528:	00000806 	br	454c <alt_load_section+0x48>
    {
      *to++ = *from++;
    452c:	e0bffe17 	ldw	r2,-8(fp)
    4530:	10c00104 	addi	r3,r2,4
    4534:	e0fffe15 	stw	r3,-8(fp)
    4538:	e0fffd17 	ldw	r3,-12(fp)
    453c:	19000104 	addi	r4,r3,4
    4540:	e13ffd15 	stw	r4,-12(fp)
    4544:	18c00017 	ldw	r3,0(r3)
    4548:	10c00015 	stw	r3,0(r2)
                                         alt_u32* to, 
                                         alt_u32* end)
{
  if (to != from)
  {
    while( to != end )
    454c:	e0fffe17 	ldw	r3,-8(fp)
    4550:	e0bfff17 	ldw	r2,-4(fp)
    4554:	18bff51e 	bne	r3,r2,452c <__alt_mem_VGA_Subsystem_Char_Buf_Subsystem_Onchip_SRAM+0xf700452c>
    {
      *to++ = *from++;
    }
  }
}
    4558:	0001883a 	nop
    455c:	e037883a 	mov	sp,fp
    4560:	df000017 	ldw	fp,0(sp)
    4564:	dec00104 	addi	sp,sp,4
    4568:	f800283a 	ret

0000456c <alt_load>:
 * there is no bootloader, so this application is responsible for loading to
 * RAM any sections that are required.
 */  

void alt_load (void)
{
    456c:	defffe04 	addi	sp,sp,-8
    4570:	dfc00115 	stw	ra,4(sp)
    4574:	df000015 	stw	fp,0(sp)
    4578:	d839883a 	mov	fp,sp
  /* 
   * Copy the .rwdata section. 
   */

  alt_load_section (&__flash_rwdata_start, 
    457c:	01800074 	movhi	r6,1
    4580:	318c7004 	addi	r6,r6,12736
    4584:	01400074 	movhi	r5,1
    4588:	2944e404 	addi	r5,r5,5008
    458c:	01000074 	movhi	r4,1
    4590:	210c7004 	addi	r4,r4,12736
    4594:	00045040 	call	4504 <alt_load_section>

  /*
   * Copy the exception handler.
   */

  alt_load_section (&__flash_exceptions_start, 
    4598:	01800034 	movhi	r6,0
    459c:	31809204 	addi	r6,r6,584
    45a0:	01400034 	movhi	r5,0
    45a4:	29400804 	addi	r5,r5,32
    45a8:	01000034 	movhi	r4,0
    45ac:	21000804 	addi	r4,r4,32
    45b0:	00045040 	call	4504 <alt_load_section>

  /*
   * Copy the .rodata section.
   */

  alt_load_section (&__flash_rodata_start, 
    45b4:	01800074 	movhi	r6,1
    45b8:	3184e404 	addi	r6,r6,5008
    45bc:	01400074 	movhi	r5,1
    45c0:	29440a04 	addi	r5,r5,4136
    45c4:	01000074 	movhi	r4,1
    45c8:	21040a04 	addi	r4,r4,4136
    45cc:	00045040 	call	4504 <alt_load_section>
  
  /*
   * Now ensure that the caches are in synch.
   */
  
  alt_dcache_flush_all();
    45d0:	000fccc0 	call	fccc <alt_dcache_flush_all>
  alt_icache_flush_all();
    45d4:	000ff1c0 	call	ff1c <alt_icache_flush_all>
}
    45d8:	0001883a 	nop
    45dc:	e037883a 	mov	sp,fp
    45e0:	dfc00117 	ldw	ra,4(sp)
    45e4:	df000017 	ldw	fp,0(sp)
    45e8:	dec00204 	addi	sp,sp,8
    45ec:	f800283a 	ret

000045f0 <alt_get_errno>:
#undef errno

extern int errno;

static ALT_INLINE int* alt_get_errno(void)
{
    45f0:	defffe04 	addi	sp,sp,-8
    45f4:	dfc00115 	stw	ra,4(sp)
    45f8:	df000015 	stw	fp,0(sp)
    45fc:	d839883a 	mov	fp,sp
  return ((alt_errno) ? alt_errno() : &errno);
    4600:	d0a00b17 	ldw	r2,-32724(gp)
    4604:	10000326 	beq	r2,zero,4614 <alt_get_errno+0x24>
    4608:	d0a00b17 	ldw	r2,-32724(gp)
    460c:	103ee83a 	callr	r2
    4610:	00000106 	br	4618 <alt_get_errno+0x28>
    4614:	d0a7c904 	addi	r2,gp,-24796
}
    4618:	e037883a 	mov	sp,fp
    461c:	dfc00117 	ldw	ra,4(sp)
    4620:	df000017 	ldw	fp,0(sp)
    4624:	dec00204 	addi	sp,sp,8
    4628:	f800283a 	ret

0000462c <lseek>:
 * ALT_LSEEK is mapped onto the lseek() system call in alt_syscall.h
 *
 */

off_t ALT_LSEEK (int file, off_t ptr, int dir)
{
    462c:	defff904 	addi	sp,sp,-28
    4630:	dfc00615 	stw	ra,24(sp)
    4634:	df000515 	stw	fp,20(sp)
    4638:	df000504 	addi	fp,sp,20
    463c:	e13ffd15 	stw	r4,-12(fp)
    4640:	e17ffe15 	stw	r5,-8(fp)
    4644:	e1bfff15 	stw	r6,-4(fp)
  alt_fd* fd;
  off_t   rc = 0; 
    4648:	e03ffb15 	stw	zero,-20(fp)
   * A common error case is that when the file descriptor was created, the call
   * to open() failed resulting in a negative file descriptor. This is trapped
   * below so that we don't try and process an invalid file descriptor.
   */

  fd = (file < 0) ? NULL : &alt_fd_list[file];
    464c:	e0bffd17 	ldw	r2,-12(fp)
    4650:	10000616 	blt	r2,zero,466c <lseek+0x40>
    4654:	e0bffd17 	ldw	r2,-12(fp)
    4658:	10c00324 	muli	r3,r2,12
    465c:	00800074 	movhi	r2,1
    4660:	10870304 	addi	r2,r2,7180
    4664:	1885883a 	add	r2,r3,r2
    4668:	00000106 	br	4670 <lseek+0x44>
    466c:	0005883a 	mov	r2,zero
    4670:	e0bffc15 	stw	r2,-16(fp)
  
  if (fd) 
    4674:	e0bffc17 	ldw	r2,-16(fp)
    4678:	10001026 	beq	r2,zero,46bc <lseek+0x90>
    /*
     * If the device driver provides an implementation of the lseek() function,
     * then call that to process the request.
     */
 
    if (fd->dev->lseek)
    467c:	e0bffc17 	ldw	r2,-16(fp)
    4680:	10800017 	ldw	r2,0(r2)
    4684:	10800717 	ldw	r2,28(r2)
    4688:	10000926 	beq	r2,zero,46b0 <lseek+0x84>
    {
      rc = fd->dev->lseek(fd, ptr, dir);
    468c:	e0bffc17 	ldw	r2,-16(fp)
    4690:	10800017 	ldw	r2,0(r2)
    4694:	10800717 	ldw	r2,28(r2)
    4698:	e1bfff17 	ldw	r6,-4(fp)
    469c:	e17ffe17 	ldw	r5,-8(fp)
    46a0:	e13ffc17 	ldw	r4,-16(fp)
    46a4:	103ee83a 	callr	r2
    46a8:	e0bffb15 	stw	r2,-20(fp)
    46ac:	00000506 	br	46c4 <lseek+0x98>
     * Otherwise return an error.
     */

    else
    {
      rc = -ENOTSUP;
    46b0:	00bfde84 	movi	r2,-134
    46b4:	e0bffb15 	stw	r2,-20(fp)
    46b8:	00000206 	br	46c4 <lseek+0x98>
    }
  }
  else  
  {
    rc = -EBADFD;
    46bc:	00bfebc4 	movi	r2,-81
    46c0:	e0bffb15 	stw	r2,-20(fp)
  }

  if (rc < 0)
    46c4:	e0bffb17 	ldw	r2,-20(fp)
    46c8:	1000070e 	bge	r2,zero,46e8 <lseek+0xbc>
  {
    ALT_ERRNO = -rc;
    46cc:	00045f00 	call	45f0 <alt_get_errno>
    46d0:	1007883a 	mov	r3,r2
    46d4:	e0bffb17 	ldw	r2,-20(fp)
    46d8:	0085c83a 	sub	r2,zero,r2
    46dc:	18800015 	stw	r2,0(r3)
    rc = -1;
    46e0:	00bfffc4 	movi	r2,-1
    46e4:	e0bffb15 	stw	r2,-20(fp)
  }

  return rc;
    46e8:	e0bffb17 	ldw	r2,-20(fp)
}
    46ec:	e037883a 	mov	sp,fp
    46f0:	dfc00117 	ldw	ra,4(sp)
    46f4:	df000017 	ldw	fp,0(sp)
    46f8:	dec00204 	addi	sp,sp,8
    46fc:	f800283a 	ret

00004700 <alt_main>:
 * devices/filesystems/components in the system; and call the entry point for
 * the users application, i.e. main().
 */

void alt_main (void)
{
    4700:	defff904 	addi	sp,sp,-28
    4704:	dfc00615 	stw	ra,24(sp)
    4708:	df000515 	stw	fp,20(sp)
    470c:	df000504 	addi	fp,sp,20
#endif

  /* ALT LOG - please see HAL/sys/alt_log_printf.h for details */
  ALT_LOG_PRINT_BOOT("[alt_main.c] Entering alt_main, calling alt_irq_init.\r\n");
  /* Initialize the interrupt controller. */
  alt_irq_init (NULL);
    4710:	0009883a 	mov	r4,zero
    4714:	000d1280 	call	d128 <alt_irq_init>

  /* Initialize the operating system */
  ALT_LOG_PRINT_BOOT("[alt_main.c] Done alt_irq_init, calling alt_os_init.\r\n");
  ALT_OS_INIT();
    4718:	00056bc0 	call	56bc <OSInit>
    471c:	01000044 	movi	r4,1
    4720:	000aae40 	call	aae4 <OSSemCreate>
    4724:	d0a7cf15 	stw	r2,-24772(gp)
    4728:	01000044 	movi	r4,1
    472c:	000aae40 	call	aae4 <OSSemCreate>
    4730:	d0a7d115 	stw	r2,-24764(gp)
    4734:	d0a7ca04 	addi	r2,gp,-24792
    4738:	e0bffc15 	stw	r2,-16(fp)
    473c:	00800044 	movi	r2,1
    4740:	e0bffd0d 	sth	r2,-12(fp)
 */

static ALT_INLINE int ALT_ALWAYS_INLINE alt_sem_create (OS_EVENT** sem, 
              INT16U value)
{
  *sem = OSSemCreate (value);
    4744:	e0bffd0b 	ldhu	r2,-12(fp)
    4748:	1009883a 	mov	r4,r2
    474c:	000aae40 	call	aae4 <OSSemCreate>
    4750:	1007883a 	mov	r3,r2
    4754:	e0bffc17 	ldw	r2,-16(fp)
    4758:	10c00015 	stw	r3,0(r2)
  ALT_LOG_PRINT_BOOT("[alt_main.c] Done OS Init, calling alt_sem_create.\r\n");
  ALT_SEM_CREATE (&alt_fd_list_lock, 1);

  /* Initialize the device drivers/software components. */
  ALT_LOG_PRINT_BOOT("[alt_main.c] Calling alt_sys_init.\r\n");
  alt_sys_init();
    475c:	000d1600 	call	d160 <alt_sys_init>
   * devices be present (not equal to /dev/null) and if direct drivers
   * aren't being used.
   */

    ALT_LOG_PRINT_BOOT("[alt_main.c] Redirecting IO.\r\n");
    alt_io_redirect(ALT_STDOUT, ALT_STDIN, ALT_STDERR);
    4760:	01800074 	movhi	r6,1
    4764:	31844004 	addi	r6,r6,4352
    4768:	01400074 	movhi	r5,1
    476c:	29444004 	addi	r5,r5,4352
    4770:	01000074 	movhi	r4,1
    4774:	21044004 	addi	r4,r4,4352
    4778:	00100140 	call	10014 <alt_io_redirect>
  /* 
   * Call the C++ constructors 
   */

  ALT_LOG_PRINT_BOOT("[alt_main.c] Calling C++ constructors.\r\n");
  _do_ctors ();
    477c:	000fdcc0 	call	fdcc <_do_ctors>
   * redefined as _exit()). This is in the interest of reducing code footprint,
   * in that the atexit() overhead is removed when it's not needed.
   */

  ALT_LOG_PRINT_BOOT("[alt_main.c] Calling atexit.\r\n");
  atexit (_do_dtors);
    4780:	01000074 	movhi	r4,1
    4784:	213f8b04 	addi	r4,r4,-468
    4788:	0010c940 	call	10c94 <atexit>
  ALT_LOG_PRINT_BOOT("[alt_main.c] Calling main.\r\n");

#ifdef ALT_NO_EXIT
  main (alt_argc, alt_argv, alt_envp);
#else
  result = main (alt_argc, alt_argv, alt_envp);
    478c:	d0a7cb17 	ldw	r2,-24788(gp)
    4790:	d0e7cc17 	ldw	r3,-24784(gp)
    4794:	d127cd17 	ldw	r4,-24780(gp)
    4798:	200d883a 	mov	r6,r4
    479c:	180b883a 	mov	r5,r3
    47a0:	1009883a 	mov	r4,r2
    47a4:	00004b00 	call	4b0 <main>
    47a8:	e0bffb15 	stw	r2,-20(fp)
  close(STDOUT_FILENO);
    47ac:	01000044 	movi	r4,1
    47b0:	000423c0 	call	423c <close>
  exit (result);
    47b4:	e13ffb17 	ldw	r4,-20(fp)
    47b8:	0010ca80 	call	10ca8 <exit>

000047bc <alt_get_errno>:
#undef errno

extern int errno;

static ALT_INLINE int* alt_get_errno(void)
{
    47bc:	defffe04 	addi	sp,sp,-8
    47c0:	dfc00115 	stw	ra,4(sp)
    47c4:	df000015 	stw	fp,0(sp)
    47c8:	d839883a 	mov	fp,sp
  return ((alt_errno) ? alt_errno() : &errno);
    47cc:	d0a00b17 	ldw	r2,-32724(gp)
    47d0:	10000326 	beq	r2,zero,47e0 <alt_get_errno+0x24>
    47d4:	d0a00b17 	ldw	r2,-32724(gp)
    47d8:	103ee83a 	callr	r2
    47dc:	00000106 	br	47e4 <alt_get_errno+0x28>
    47e0:	d0a7c904 	addi	r2,gp,-24796
}
    47e4:	e037883a 	mov	sp,fp
    47e8:	dfc00117 	ldw	ra,4(sp)
    47ec:	df000017 	ldw	fp,0(sp)
    47f0:	dec00204 	addi	sp,sp,8
    47f4:	f800283a 	ret

000047f8 <read>:
}

#else /* !ALT_USE_DIRECT_DRIVERS */

int ALT_READ (int file, void *ptr, size_t len)
{
    47f8:	defff904 	addi	sp,sp,-28
    47fc:	dfc00615 	stw	ra,24(sp)
    4800:	df000515 	stw	fp,20(sp)
    4804:	df000504 	addi	fp,sp,20
    4808:	e13ffd15 	stw	r4,-12(fp)
    480c:	e17ffe15 	stw	r5,-8(fp)
    4810:	e1bfff15 	stw	r6,-4(fp)
   * A common error case is that when the file descriptor was created, the call
   * to open() failed resulting in a negative file descriptor. This is trapped
   * below so that we don't try and process an invalid file descriptor.
   */

  fd = (file < 0) ? NULL : &alt_fd_list[file];
    4814:	e0bffd17 	ldw	r2,-12(fp)
    4818:	10000616 	blt	r2,zero,4834 <read+0x3c>
    481c:	e0bffd17 	ldw	r2,-12(fp)
    4820:	10c00324 	muli	r3,r2,12
    4824:	00800074 	movhi	r2,1
    4828:	10870304 	addi	r2,r2,7180
    482c:	1885883a 	add	r2,r3,r2
    4830:	00000106 	br	4838 <read+0x40>
    4834:	0005883a 	mov	r2,zero
    4838:	e0bffb15 	stw	r2,-20(fp)
  
  if (fd)
    483c:	e0bffb17 	ldw	r2,-20(fp)
    4840:	10002226 	beq	r2,zero,48cc <read+0xd4>
     * If the file has not been opened with read access, or if the driver does
     * not provide an implementation of read(), generate an error. Otherwise
     * call the drivers read() function to process the request.
     */

    if (((fd->fd_flags & O_ACCMODE) != O_WRONLY) && 
    4844:	e0bffb17 	ldw	r2,-20(fp)
    4848:	10800217 	ldw	r2,8(r2)
    484c:	108000cc 	andi	r2,r2,3
    4850:	10800060 	cmpeqi	r2,r2,1
    4854:	1000181e 	bne	r2,zero,48b8 <read+0xc0>
        (fd->dev->read))
    4858:	e0bffb17 	ldw	r2,-20(fp)
    485c:	10800017 	ldw	r2,0(r2)
    4860:	10800517 	ldw	r2,20(r2)
     * If the file has not been opened with read access, or if the driver does
     * not provide an implementation of read(), generate an error. Otherwise
     * call the drivers read() function to process the request.
     */

    if (((fd->fd_flags & O_ACCMODE) != O_WRONLY) && 
    4864:	10001426 	beq	r2,zero,48b8 <read+0xc0>
        (fd->dev->read))
      {
        if ((rval = fd->dev->read(fd, ptr, len)) < 0)
    4868:	e0bffb17 	ldw	r2,-20(fp)
    486c:	10800017 	ldw	r2,0(r2)
    4870:	10800517 	ldw	r2,20(r2)
    4874:	e0ffff17 	ldw	r3,-4(fp)
    4878:	180d883a 	mov	r6,r3
    487c:	e17ffe17 	ldw	r5,-8(fp)
    4880:	e13ffb17 	ldw	r4,-20(fp)
    4884:	103ee83a 	callr	r2
    4888:	e0bffc15 	stw	r2,-16(fp)
    488c:	e0bffc17 	ldw	r2,-16(fp)
    4890:	1000070e 	bge	r2,zero,48b0 <read+0xb8>
        {
          ALT_ERRNO = -rval;
    4894:	00047bc0 	call	47bc <alt_get_errno>
    4898:	1007883a 	mov	r3,r2
    489c:	e0bffc17 	ldw	r2,-16(fp)
    48a0:	0085c83a 	sub	r2,zero,r2
    48a4:	18800015 	stw	r2,0(r3)
          return -1;
    48a8:	00bfffc4 	movi	r2,-1
    48ac:	00000c06 	br	48e0 <read+0xe8>
        }
        return rval;
    48b0:	e0bffc17 	ldw	r2,-16(fp)
    48b4:	00000a06 	br	48e0 <read+0xe8>
      }
      else
      {
        ALT_ERRNO = EACCES;
    48b8:	00047bc0 	call	47bc <alt_get_errno>
    48bc:	1007883a 	mov	r3,r2
    48c0:	00800344 	movi	r2,13
    48c4:	18800015 	stw	r2,0(r3)
    48c8:	00000406 	br	48dc <read+0xe4>
      }
    }
  else
  {
    ALT_ERRNO = EBADFD;
    48cc:	00047bc0 	call	47bc <alt_get_errno>
    48d0:	1007883a 	mov	r3,r2
    48d4:	00801444 	movi	r2,81
    48d8:	18800015 	stw	r2,0(r3)
  }
  return -1;
    48dc:	00bfffc4 	movi	r2,-1
}
    48e0:	e037883a 	mov	sp,fp
    48e4:	dfc00117 	ldw	ra,4(sp)
    48e8:	df000017 	ldw	fp,0(sp)
    48ec:	dec00204 	addi	sp,sp,8
    48f0:	f800283a 	ret

000048f4 <alt_release_fd>:
 * File descriptors correcponding to standard in, standard out and standard 
 * error cannont be released backed to the pool. They are always reserved.
 */

void alt_release_fd (int fd)
{
    48f4:	defffe04 	addi	sp,sp,-8
    48f8:	df000115 	stw	fp,4(sp)
    48fc:	df000104 	addi	fp,sp,4
    4900:	e13fff15 	stw	r4,-4(fp)
  if (fd > 2)
    4904:	e0bfff17 	ldw	r2,-4(fp)
    4908:	108000d0 	cmplti	r2,r2,3
    490c:	10000d1e 	bne	r2,zero,4944 <alt_release_fd+0x50>
  {
    alt_fd_list[fd].fd_flags = 0;
    4910:	00800074 	movhi	r2,1
    4914:	10870304 	addi	r2,r2,7180
    4918:	e0ffff17 	ldw	r3,-4(fp)
    491c:	18c00324 	muli	r3,r3,12
    4920:	10c5883a 	add	r2,r2,r3
    4924:	10800204 	addi	r2,r2,8
    4928:	10000015 	stw	zero,0(r2)
    alt_fd_list[fd].dev      = 0;
    492c:	00800074 	movhi	r2,1
    4930:	10870304 	addi	r2,r2,7180
    4934:	e0ffff17 	ldw	r3,-4(fp)
    4938:	18c00324 	muli	r3,r3,12
    493c:	10c5883a 	add	r2,r2,r3
    4940:	10000015 	stw	zero,0(r2)
  }
}
    4944:	0001883a 	nop
    4948:	e037883a 	mov	sp,fp
    494c:	df000017 	ldw	fp,0(sp)
    4950:	dec00104 	addi	sp,sp,4
    4954:	f800283a 	ret

00004958 <sbrk>:
#endif
 
caddr_t ALT_SBRK (int incr) __attribute__ ((no_instrument_function ));

caddr_t ALT_SBRK (int incr)
{ 
    4958:	defff904 	addi	sp,sp,-28
    495c:	df000615 	stw	fp,24(sp)
    4960:	df000604 	addi	fp,sp,24
    4964:	e13fff15 	stw	r4,-4(fp)
static ALT_INLINE alt_irq_context ALT_ALWAYS_INLINE 
       alt_irq_disable_all (void)
{
  alt_irq_context context;

  NIOS2_READ_STATUS (context);
    4968:	0005303a 	rdctl	r2,status
    496c:	e0bffe15 	stw	r2,-8(fp)

  NIOS2_WRITE_STATUS (context & ~NIOS2_STATUS_PIE_MSK);
    4970:	e0fffe17 	ldw	r3,-8(fp)
    4974:	00bfff84 	movi	r2,-2
    4978:	1884703a 	and	r2,r3,r2
    497c:	1001703a 	wrctl	status,r2
  
  return context;
    4980:	e0bffe17 	ldw	r2,-8(fp)
  alt_irq_context context;
  char *prev_heap_end; 

  context = alt_irq_disable_all();
    4984:	e0bffb15 	stw	r2,-20(fp)

  /* Always return data aligned on a word boundary */
  heap_end = (char *)(((unsigned int)heap_end + 3) & ~3);
    4988:	d0a00c17 	ldw	r2,-32720(gp)
    498c:	10c000c4 	addi	r3,r2,3
    4990:	00bfff04 	movi	r2,-4
    4994:	1884703a 	and	r2,r3,r2
    4998:	d0a00c15 	stw	r2,-32720(gp)
  if (((heap_end + incr) - __alt_heap_start) > ALT_MAX_HEAP_BYTES) {
    alt_irq_enable_all(context);
    return (caddr_t)-1;
  }
#else
  if ((heap_end + incr) > __alt_heap_limit) {
    499c:	d0e00c17 	ldw	r3,-32720(gp)
    49a0:	e0bfff17 	ldw	r2,-4(fp)
    49a4:	1887883a 	add	r3,r3,r2
    49a8:	00810034 	movhi	r2,1024
    49ac:	10800004 	addi	r2,r2,0
    49b0:	10c0062e 	bgeu	r2,r3,49cc <sbrk+0x74>
    49b4:	e0bffb17 	ldw	r2,-20(fp)
    49b8:	e0bffa15 	stw	r2,-24(fp)
  status &= ~NIOS2_STATUS_PIE_MSK;
  status |= (context & NIOS2_STATUS_PIE_MSK);
  
  NIOS2_WRITE_STATUS (status);
#else
  NIOS2_WRITE_STATUS (context);
    49bc:	e0bffa17 	ldw	r2,-24(fp)
    49c0:	1001703a 	wrctl	status,r2
    alt_irq_enable_all(context);
    return (caddr_t)-1;
    49c4:	00bfffc4 	movi	r2,-1
    49c8:	00000b06 	br	49f8 <sbrk+0xa0>
  }
#endif

  prev_heap_end = heap_end; 
    49cc:	d0a00c17 	ldw	r2,-32720(gp)
    49d0:	e0bffd15 	stw	r2,-12(fp)
  heap_end += incr; 
    49d4:	d0e00c17 	ldw	r3,-32720(gp)
    49d8:	e0bfff17 	ldw	r2,-4(fp)
    49dc:	1885883a 	add	r2,r3,r2
    49e0:	d0a00c15 	stw	r2,-32720(gp)
    49e4:	e0bffb17 	ldw	r2,-20(fp)
    49e8:	e0bffc15 	stw	r2,-16(fp)
    49ec:	e0bffc17 	ldw	r2,-16(fp)
    49f0:	1001703a 	wrctl	status,r2

#endif

  alt_irq_enable_all(context);

  return (caddr_t) prev_heap_end; 
    49f4:	e0bffd17 	ldw	r2,-12(fp)
} 
    49f8:	e037883a 	mov	sp,fp
    49fc:	df000017 	ldw	fp,0(sp)
    4a00:	dec00104 	addi	sp,sp,4
    4a04:	f800283a 	ret

00004a08 <alt_get_errno>:
#undef errno

extern int errno;

static ALT_INLINE int* alt_get_errno(void)
{
    4a08:	defffe04 	addi	sp,sp,-8
    4a0c:	dfc00115 	stw	ra,4(sp)
    4a10:	df000015 	stw	fp,0(sp)
    4a14:	d839883a 	mov	fp,sp
  return ((alt_errno) ? alt_errno() : &errno);
    4a18:	d0a00b17 	ldw	r2,-32724(gp)
    4a1c:	10000326 	beq	r2,zero,4a2c <alt_get_errno+0x24>
    4a20:	d0a00b17 	ldw	r2,-32724(gp)
    4a24:	103ee83a 	callr	r2
    4a28:	00000106 	br	4a30 <alt_get_errno+0x28>
    4a2c:	d0a7c904 	addi	r2,gp,-24796
}
    4a30:	e037883a 	mov	sp,fp
    4a34:	dfc00117 	ldw	ra,4(sp)
    4a38:	df000017 	ldw	fp,0(sp)
    4a3c:	dec00204 	addi	sp,sp,8
    4a40:	f800283a 	ret

00004a44 <write>:
}

#else /* !ALT_USE_DIRECT_DRIVERS */

int ALT_WRITE (int file, const void *ptr, size_t len)
{
    4a44:	defff904 	addi	sp,sp,-28
    4a48:	dfc00615 	stw	ra,24(sp)
    4a4c:	df000515 	stw	fp,20(sp)
    4a50:	df000504 	addi	fp,sp,20
    4a54:	e13ffd15 	stw	r4,-12(fp)
    4a58:	e17ffe15 	stw	r5,-8(fp)
    4a5c:	e1bfff15 	stw	r6,-4(fp)
   * A common error case is that when the file descriptor was created, the call
   * to open() failed resulting in a negative file descriptor. This is trapped
   * below so that we don't try and process an invalid file descriptor.
   */

  fd = (file < 0) ? NULL : &alt_fd_list[file];
    4a60:	e0bffd17 	ldw	r2,-12(fp)
    4a64:	10000616 	blt	r2,zero,4a80 <write+0x3c>
    4a68:	e0bffd17 	ldw	r2,-12(fp)
    4a6c:	10c00324 	muli	r3,r2,12
    4a70:	00800074 	movhi	r2,1
    4a74:	10870304 	addi	r2,r2,7180
    4a78:	1885883a 	add	r2,r3,r2
    4a7c:	00000106 	br	4a84 <write+0x40>
    4a80:	0005883a 	mov	r2,zero
    4a84:	e0bffb15 	stw	r2,-20(fp)
  
  if (fd)
    4a88:	e0bffb17 	ldw	r2,-20(fp)
    4a8c:	10002126 	beq	r2,zero,4b14 <write+0xd0>
     * If the file has not been opened with write access, or if the driver does
     * not provide an implementation of write(), generate an error. Otherwise
     * call the drivers write() function to process the request.
     */

    if (((fd->fd_flags & O_ACCMODE) != O_RDONLY) && fd->dev->write)
    4a90:	e0bffb17 	ldw	r2,-20(fp)
    4a94:	10800217 	ldw	r2,8(r2)
    4a98:	108000cc 	andi	r2,r2,3
    4a9c:	10001826 	beq	r2,zero,4b00 <write+0xbc>
    4aa0:	e0bffb17 	ldw	r2,-20(fp)
    4aa4:	10800017 	ldw	r2,0(r2)
    4aa8:	10800617 	ldw	r2,24(r2)
    4aac:	10001426 	beq	r2,zero,4b00 <write+0xbc>
    {
      
      /* ALT_LOG - see altera_hal/HAL/inc/sys/alt_log_printf.h */
      ALT_LOG_WRITE_FUNCTION(ptr,len);

      if ((rval = fd->dev->write(fd, ptr, len)) < 0)
    4ab0:	e0bffb17 	ldw	r2,-20(fp)
    4ab4:	10800017 	ldw	r2,0(r2)
    4ab8:	10800617 	ldw	r2,24(r2)
    4abc:	e0ffff17 	ldw	r3,-4(fp)
    4ac0:	180d883a 	mov	r6,r3
    4ac4:	e17ffe17 	ldw	r5,-8(fp)
    4ac8:	e13ffb17 	ldw	r4,-20(fp)
    4acc:	103ee83a 	callr	r2
    4ad0:	e0bffc15 	stw	r2,-16(fp)
    4ad4:	e0bffc17 	ldw	r2,-16(fp)
    4ad8:	1000070e 	bge	r2,zero,4af8 <write+0xb4>
      {
        ALT_ERRNO = -rval;
    4adc:	0004a080 	call	4a08 <alt_get_errno>
    4ae0:	1007883a 	mov	r3,r2
    4ae4:	e0bffc17 	ldw	r2,-16(fp)
    4ae8:	0085c83a 	sub	r2,zero,r2
    4aec:	18800015 	stw	r2,0(r3)
        return -1;
    4af0:	00bfffc4 	movi	r2,-1
    4af4:	00000c06 	br	4b28 <write+0xe4>
      }
      return rval;
    4af8:	e0bffc17 	ldw	r2,-16(fp)
    4afc:	00000a06 	br	4b28 <write+0xe4>
    }
    else
    {
      ALT_ERRNO = EACCES;
    4b00:	0004a080 	call	4a08 <alt_get_errno>
    4b04:	1007883a 	mov	r3,r2
    4b08:	00800344 	movi	r2,13
    4b0c:	18800015 	stw	r2,0(r3)
    4b10:	00000406 	br	4b24 <write+0xe0>
    }
  }
  else  
  {
    ALT_ERRNO = EBADFD;
    4b14:	0004a080 	call	4a08 <alt_get_errno>
    4b18:	1007883a 	mov	r3,r2
